
Labb6.elf:     file format elf32-littlearm

Sections:
Idx Name          Size      VMA       LMA       File off  Algn
  0 .isr_vector   00000194  08000000  08000000  00010000  2**0
                  CONTENTS, ALLOC, LOAD, READONLY, DATA
  1 .text         00002874  08000198  08000198  00010198  2**3
                  CONTENTS, ALLOC, LOAD, READONLY, CODE
  2 .rodata       00000054  08002a0c  08002a0c  00012a0c  2**0
                  CONTENTS, ALLOC, LOAD, READONLY, DATA
  3 .ARM          00000008  08002a60  08002a60  00012a60  2**2
                  CONTENTS, ALLOC, LOAD, READONLY, DATA
  4 .init_array   00000004  08002a68  08002a68  00012a68  2**2
                  CONTENTS, ALLOC, LOAD, DATA
  5 .fini_array   00000004  08002a6c  08002a6c  00012a6c  2**2
                  CONTENTS, ALLOC, LOAD, DATA
  6 .data         00000014  20000000  08002a70  00020000  2**2
                  CONTENTS, ALLOC, LOAD, DATA
  7 .bss          000001cc  20000014  08002a84  00020014  2**2
                  ALLOC
  8 ._user_heap_stack 00000600  200001e0  08002a84  000201e0  2**0
                  ALLOC
  9 .ARM.attributes 00000030  00000000  00000000  00020014  2**0
                  CONTENTS, READONLY
 10 .debug_info   00016a50  00000000  00000000  00020044  2**0
                  CONTENTS, READONLY, DEBUGGING
 11 .debug_abbrev 00002b40  00000000  00000000  00036a94  2**0
                  CONTENTS, READONLY, DEBUGGING
 12 .debug_loc    000070d3  00000000  00000000  000395d4  2**0
                  CONTENTS, READONLY, DEBUGGING
 13 .debug_aranges 00000a28  00000000  00000000  000406a8  2**3
                  CONTENTS, READONLY, DEBUGGING
 14 .debug_ranges 00000cd8  00000000  00000000  000410d0  2**3
                  CONTENTS, READONLY, DEBUGGING
 15 .debug_line   00005b1e  00000000  00000000  00041da8  2**0
                  CONTENTS, READONLY, DEBUGGING
 16 .debug_str    00003e0f  00000000  00000000  000478c6  2**0
                  CONTENTS, READONLY, DEBUGGING
 17 .comment      0000007c  00000000  00000000  0004b6d5  2**0
                  CONTENTS, READONLY
 18 .debug_frame  00001f4c  00000000  00000000  0004b754  2**2
                  CONTENTS, READONLY, DEBUGGING

Disassembly of section .text:

08000198 <__do_global_dtors_aux>:
 8000198:	b510      	push	{r4, lr}
 800019a:	4c05      	ldr	r4, [pc, #20]	; (80001b0 <__do_global_dtors_aux+0x18>)
 800019c:	7823      	ldrb	r3, [r4, #0]
 800019e:	b933      	cbnz	r3, 80001ae <__do_global_dtors_aux+0x16>
 80001a0:	4b04      	ldr	r3, [pc, #16]	; (80001b4 <__do_global_dtors_aux+0x1c>)
 80001a2:	b113      	cbz	r3, 80001aa <__do_global_dtors_aux+0x12>
 80001a4:	4804      	ldr	r0, [pc, #16]	; (80001b8 <__do_global_dtors_aux+0x20>)
 80001a6:	f3af 8000 	nop.w
 80001aa:	2301      	movs	r3, #1
 80001ac:	7023      	strb	r3, [r4, #0]
 80001ae:	bd10      	pop	{r4, pc}
 80001b0:	20000014 	.word	0x20000014
 80001b4:	00000000 	.word	0x00000000
 80001b8:	080029f4 	.word	0x080029f4

080001bc <frame_dummy>:
 80001bc:	b508      	push	{r3, lr}
 80001be:	4b03      	ldr	r3, [pc, #12]	; (80001cc <frame_dummy+0x10>)
 80001c0:	b11b      	cbz	r3, 80001ca <frame_dummy+0xe>
 80001c2:	4903      	ldr	r1, [pc, #12]	; (80001d0 <frame_dummy+0x14>)
 80001c4:	4803      	ldr	r0, [pc, #12]	; (80001d4 <frame_dummy+0x18>)
 80001c6:	f3af 8000 	nop.w
 80001ca:	bd08      	pop	{r3, pc}
 80001cc:	00000000 	.word	0x00000000
 80001d0:	20000018 	.word	0x20000018
 80001d4:	080029f4 	.word	0x080029f4

080001d8 <__aeabi_drsub>:
 80001d8:	f081 4100 	eor.w	r1, r1, #2147483648	; 0x80000000
 80001dc:	e002      	b.n	80001e4 <__adddf3>
 80001de:	bf00      	nop

080001e0 <__aeabi_dsub>:
 80001e0:	f083 4300 	eor.w	r3, r3, #2147483648	; 0x80000000

080001e4 <__adddf3>:
 80001e4:	b530      	push	{r4, r5, lr}
 80001e6:	ea4f 0441 	mov.w	r4, r1, lsl #1
 80001ea:	ea4f 0543 	mov.w	r5, r3, lsl #1
 80001ee:	ea94 0f05 	teq	r4, r5
 80001f2:	bf08      	it	eq
 80001f4:	ea90 0f02 	teqeq	r0, r2
 80001f8:	bf1f      	itttt	ne
 80001fa:	ea54 0c00 	orrsne.w	ip, r4, r0
 80001fe:	ea55 0c02 	orrsne.w	ip, r5, r2
 8000202:	ea7f 5c64 	mvnsne.w	ip, r4, asr #21
 8000206:	ea7f 5c65 	mvnsne.w	ip, r5, asr #21
 800020a:	f000 80e2 	beq.w	80003d2 <__adddf3+0x1ee>
 800020e:	ea4f 5454 	mov.w	r4, r4, lsr #21
 8000212:	ebd4 5555 	rsbs	r5, r4, r5, lsr #21
 8000216:	bfb8      	it	lt
 8000218:	426d      	neglt	r5, r5
 800021a:	dd0c      	ble.n	8000236 <__adddf3+0x52>
 800021c:	442c      	add	r4, r5
 800021e:	ea80 0202 	eor.w	r2, r0, r2
 8000222:	ea81 0303 	eor.w	r3, r1, r3
 8000226:	ea82 0000 	eor.w	r0, r2, r0
 800022a:	ea83 0101 	eor.w	r1, r3, r1
 800022e:	ea80 0202 	eor.w	r2, r0, r2
 8000232:	ea81 0303 	eor.w	r3, r1, r3
 8000236:	2d36      	cmp	r5, #54	; 0x36
 8000238:	bf88      	it	hi
 800023a:	bd30      	pophi	{r4, r5, pc}
 800023c:	f011 4f00 	tst.w	r1, #2147483648	; 0x80000000
 8000240:	ea4f 3101 	mov.w	r1, r1, lsl #12
 8000244:	f44f 1c80 	mov.w	ip, #1048576	; 0x100000
 8000248:	ea4c 3111 	orr.w	r1, ip, r1, lsr #12
 800024c:	d002      	beq.n	8000254 <__adddf3+0x70>
 800024e:	4240      	negs	r0, r0
 8000250:	eb61 0141 	sbc.w	r1, r1, r1, lsl #1
 8000254:	f013 4f00 	tst.w	r3, #2147483648	; 0x80000000
 8000258:	ea4f 3303 	mov.w	r3, r3, lsl #12
 800025c:	ea4c 3313 	orr.w	r3, ip, r3, lsr #12
 8000260:	d002      	beq.n	8000268 <__adddf3+0x84>
 8000262:	4252      	negs	r2, r2
 8000264:	eb63 0343 	sbc.w	r3, r3, r3, lsl #1
 8000268:	ea94 0f05 	teq	r4, r5
 800026c:	f000 80a7 	beq.w	80003be <__adddf3+0x1da>
 8000270:	f1a4 0401 	sub.w	r4, r4, #1
 8000274:	f1d5 0e20 	rsbs	lr, r5, #32
 8000278:	db0d      	blt.n	8000296 <__adddf3+0xb2>
 800027a:	fa02 fc0e 	lsl.w	ip, r2, lr
 800027e:	fa22 f205 	lsr.w	r2, r2, r5
 8000282:	1880      	adds	r0, r0, r2
 8000284:	f141 0100 	adc.w	r1, r1, #0
 8000288:	fa03 f20e 	lsl.w	r2, r3, lr
 800028c:	1880      	adds	r0, r0, r2
 800028e:	fa43 f305 	asr.w	r3, r3, r5
 8000292:	4159      	adcs	r1, r3
 8000294:	e00e      	b.n	80002b4 <__adddf3+0xd0>
 8000296:	f1a5 0520 	sub.w	r5, r5, #32
 800029a:	f10e 0e20 	add.w	lr, lr, #32
 800029e:	2a01      	cmp	r2, #1
 80002a0:	fa03 fc0e 	lsl.w	ip, r3, lr
 80002a4:	bf28      	it	cs
 80002a6:	f04c 0c02 	orrcs.w	ip, ip, #2
 80002aa:	fa43 f305 	asr.w	r3, r3, r5
 80002ae:	18c0      	adds	r0, r0, r3
 80002b0:	eb51 71e3 	adcs.w	r1, r1, r3, asr #31
 80002b4:	f001 4500 	and.w	r5, r1, #2147483648	; 0x80000000
 80002b8:	d507      	bpl.n	80002ca <__adddf3+0xe6>
 80002ba:	f04f 0e00 	mov.w	lr, #0
 80002be:	f1dc 0c00 	rsbs	ip, ip, #0
 80002c2:	eb7e 0000 	sbcs.w	r0, lr, r0
 80002c6:	eb6e 0101 	sbc.w	r1, lr, r1
 80002ca:	f5b1 1f80 	cmp.w	r1, #1048576	; 0x100000
 80002ce:	d31b      	bcc.n	8000308 <__adddf3+0x124>
 80002d0:	f5b1 1f00 	cmp.w	r1, #2097152	; 0x200000
 80002d4:	d30c      	bcc.n	80002f0 <__adddf3+0x10c>
 80002d6:	0849      	lsrs	r1, r1, #1
 80002d8:	ea5f 0030 	movs.w	r0, r0, rrx
 80002dc:	ea4f 0c3c 	mov.w	ip, ip, rrx
 80002e0:	f104 0401 	add.w	r4, r4, #1
 80002e4:	ea4f 5244 	mov.w	r2, r4, lsl #21
 80002e8:	f512 0f80 	cmn.w	r2, #4194304	; 0x400000
 80002ec:	f080 809a 	bcs.w	8000424 <__adddf3+0x240>
 80002f0:	f1bc 4f00 	cmp.w	ip, #2147483648	; 0x80000000
 80002f4:	bf08      	it	eq
 80002f6:	ea5f 0c50 	movseq.w	ip, r0, lsr #1
 80002fa:	f150 0000 	adcs.w	r0, r0, #0
 80002fe:	eb41 5104 	adc.w	r1, r1, r4, lsl #20
 8000302:	ea41 0105 	orr.w	r1, r1, r5
 8000306:	bd30      	pop	{r4, r5, pc}
 8000308:	ea5f 0c4c 	movs.w	ip, ip, lsl #1
 800030c:	4140      	adcs	r0, r0
 800030e:	eb41 0101 	adc.w	r1, r1, r1
 8000312:	f411 1f80 	tst.w	r1, #1048576	; 0x100000
 8000316:	f1a4 0401 	sub.w	r4, r4, #1
 800031a:	d1e9      	bne.n	80002f0 <__adddf3+0x10c>
 800031c:	f091 0f00 	teq	r1, #0
 8000320:	bf04      	itt	eq
 8000322:	4601      	moveq	r1, r0
 8000324:	2000      	moveq	r0, #0
 8000326:	fab1 f381 	clz	r3, r1
 800032a:	bf08      	it	eq
 800032c:	3320      	addeq	r3, #32
 800032e:	f1a3 030b 	sub.w	r3, r3, #11
 8000332:	f1b3 0220 	subs.w	r2, r3, #32
 8000336:	da0c      	bge.n	8000352 <__adddf3+0x16e>
 8000338:	320c      	adds	r2, #12
 800033a:	dd08      	ble.n	800034e <__adddf3+0x16a>
 800033c:	f102 0c14 	add.w	ip, r2, #20
 8000340:	f1c2 020c 	rsb	r2, r2, #12
 8000344:	fa01 f00c 	lsl.w	r0, r1, ip
 8000348:	fa21 f102 	lsr.w	r1, r1, r2
 800034c:	e00c      	b.n	8000368 <__adddf3+0x184>
 800034e:	f102 0214 	add.w	r2, r2, #20
 8000352:	bfd8      	it	le
 8000354:	f1c2 0c20 	rsble	ip, r2, #32
 8000358:	fa01 f102 	lsl.w	r1, r1, r2
 800035c:	fa20 fc0c 	lsr.w	ip, r0, ip
 8000360:	bfdc      	itt	le
 8000362:	ea41 010c 	orrle.w	r1, r1, ip
 8000366:	4090      	lslle	r0, r2
 8000368:	1ae4      	subs	r4, r4, r3
 800036a:	bfa2      	ittt	ge
 800036c:	eb01 5104 	addge.w	r1, r1, r4, lsl #20
 8000370:	4329      	orrge	r1, r5
 8000372:	bd30      	popge	{r4, r5, pc}
 8000374:	ea6f 0404 	mvn.w	r4, r4
 8000378:	3c1f      	subs	r4, #31
 800037a:	da1c      	bge.n	80003b6 <__adddf3+0x1d2>
 800037c:	340c      	adds	r4, #12
 800037e:	dc0e      	bgt.n	800039e <__adddf3+0x1ba>
 8000380:	f104 0414 	add.w	r4, r4, #20
 8000384:	f1c4 0220 	rsb	r2, r4, #32
 8000388:	fa20 f004 	lsr.w	r0, r0, r4
 800038c:	fa01 f302 	lsl.w	r3, r1, r2
 8000390:	ea40 0003 	orr.w	r0, r0, r3
 8000394:	fa21 f304 	lsr.w	r3, r1, r4
 8000398:	ea45 0103 	orr.w	r1, r5, r3
 800039c:	bd30      	pop	{r4, r5, pc}
 800039e:	f1c4 040c 	rsb	r4, r4, #12
 80003a2:	f1c4 0220 	rsb	r2, r4, #32
 80003a6:	fa20 f002 	lsr.w	r0, r0, r2
 80003aa:	fa01 f304 	lsl.w	r3, r1, r4
 80003ae:	ea40 0003 	orr.w	r0, r0, r3
 80003b2:	4629      	mov	r1, r5
 80003b4:	bd30      	pop	{r4, r5, pc}
 80003b6:	fa21 f004 	lsr.w	r0, r1, r4
 80003ba:	4629      	mov	r1, r5
 80003bc:	bd30      	pop	{r4, r5, pc}
 80003be:	f094 0f00 	teq	r4, #0
 80003c2:	f483 1380 	eor.w	r3, r3, #1048576	; 0x100000
 80003c6:	bf06      	itte	eq
 80003c8:	f481 1180 	eoreq.w	r1, r1, #1048576	; 0x100000
 80003cc:	3401      	addeq	r4, #1
 80003ce:	3d01      	subne	r5, #1
 80003d0:	e74e      	b.n	8000270 <__adddf3+0x8c>
 80003d2:	ea7f 5c64 	mvns.w	ip, r4, asr #21
 80003d6:	bf18      	it	ne
 80003d8:	ea7f 5c65 	mvnsne.w	ip, r5, asr #21
 80003dc:	d029      	beq.n	8000432 <__adddf3+0x24e>
 80003de:	ea94 0f05 	teq	r4, r5
 80003e2:	bf08      	it	eq
 80003e4:	ea90 0f02 	teqeq	r0, r2
 80003e8:	d005      	beq.n	80003f6 <__adddf3+0x212>
 80003ea:	ea54 0c00 	orrs.w	ip, r4, r0
 80003ee:	bf04      	itt	eq
 80003f0:	4619      	moveq	r1, r3
 80003f2:	4610      	moveq	r0, r2
 80003f4:	bd30      	pop	{r4, r5, pc}
 80003f6:	ea91 0f03 	teq	r1, r3
 80003fa:	bf1e      	ittt	ne
 80003fc:	2100      	movne	r1, #0
 80003fe:	2000      	movne	r0, #0
 8000400:	bd30      	popne	{r4, r5, pc}
 8000402:	ea5f 5c54 	movs.w	ip, r4, lsr #21
 8000406:	d105      	bne.n	8000414 <__adddf3+0x230>
 8000408:	0040      	lsls	r0, r0, #1
 800040a:	4149      	adcs	r1, r1
 800040c:	bf28      	it	cs
 800040e:	f041 4100 	orrcs.w	r1, r1, #2147483648	; 0x80000000
 8000412:	bd30      	pop	{r4, r5, pc}
 8000414:	f514 0480 	adds.w	r4, r4, #4194304	; 0x400000
 8000418:	bf3c      	itt	cc
 800041a:	f501 1180 	addcc.w	r1, r1, #1048576	; 0x100000
 800041e:	bd30      	popcc	{r4, r5, pc}
 8000420:	f001 4500 	and.w	r5, r1, #2147483648	; 0x80000000
 8000424:	f045 41fe 	orr.w	r1, r5, #2130706432	; 0x7f000000
 8000428:	f441 0170 	orr.w	r1, r1, #15728640	; 0xf00000
 800042c:	f04f 0000 	mov.w	r0, #0
 8000430:	bd30      	pop	{r4, r5, pc}
 8000432:	ea7f 5c64 	mvns.w	ip, r4, asr #21
 8000436:	bf1a      	itte	ne
 8000438:	4619      	movne	r1, r3
 800043a:	4610      	movne	r0, r2
 800043c:	ea7f 5c65 	mvnseq.w	ip, r5, asr #21
 8000440:	bf1c      	itt	ne
 8000442:	460b      	movne	r3, r1
 8000444:	4602      	movne	r2, r0
 8000446:	ea50 3401 	orrs.w	r4, r0, r1, lsl #12
 800044a:	bf06      	itte	eq
 800044c:	ea52 3503 	orrseq.w	r5, r2, r3, lsl #12
 8000450:	ea91 0f03 	teqeq	r1, r3
 8000454:	f441 2100 	orrne.w	r1, r1, #524288	; 0x80000
 8000458:	bd30      	pop	{r4, r5, pc}
 800045a:	bf00      	nop

0800045c <__aeabi_ui2d>:
 800045c:	f090 0f00 	teq	r0, #0
 8000460:	bf04      	itt	eq
 8000462:	2100      	moveq	r1, #0
 8000464:	4770      	bxeq	lr
 8000466:	b530      	push	{r4, r5, lr}
 8000468:	f44f 6480 	mov.w	r4, #1024	; 0x400
 800046c:	f104 0432 	add.w	r4, r4, #50	; 0x32
 8000470:	f04f 0500 	mov.w	r5, #0
 8000474:	f04f 0100 	mov.w	r1, #0
 8000478:	e750      	b.n	800031c <__adddf3+0x138>
 800047a:	bf00      	nop

0800047c <__aeabi_i2d>:
 800047c:	f090 0f00 	teq	r0, #0
 8000480:	bf04      	itt	eq
 8000482:	2100      	moveq	r1, #0
 8000484:	4770      	bxeq	lr
 8000486:	b530      	push	{r4, r5, lr}
 8000488:	f44f 6480 	mov.w	r4, #1024	; 0x400
 800048c:	f104 0432 	add.w	r4, r4, #50	; 0x32
 8000490:	f010 4500 	ands.w	r5, r0, #2147483648	; 0x80000000
 8000494:	bf48      	it	mi
 8000496:	4240      	negmi	r0, r0
 8000498:	f04f 0100 	mov.w	r1, #0
 800049c:	e73e      	b.n	800031c <__adddf3+0x138>
 800049e:	bf00      	nop

080004a0 <__aeabi_f2d>:
 80004a0:	0042      	lsls	r2, r0, #1
 80004a2:	ea4f 01e2 	mov.w	r1, r2, asr #3
 80004a6:	ea4f 0131 	mov.w	r1, r1, rrx
 80004aa:	ea4f 7002 	mov.w	r0, r2, lsl #28
 80004ae:	bf1f      	itttt	ne
 80004b0:	f012 437f 	andsne.w	r3, r2, #4278190080	; 0xff000000
 80004b4:	f093 4f7f 	teqne	r3, #4278190080	; 0xff000000
 80004b8:	f081 5160 	eorne.w	r1, r1, #939524096	; 0x38000000
 80004bc:	4770      	bxne	lr
 80004be:	f092 0f00 	teq	r2, #0
 80004c2:	bf14      	ite	ne
 80004c4:	f093 4f7f 	teqne	r3, #4278190080	; 0xff000000
 80004c8:	4770      	bxeq	lr
 80004ca:	b530      	push	{r4, r5, lr}
 80004cc:	f44f 7460 	mov.w	r4, #896	; 0x380
 80004d0:	f001 4500 	and.w	r5, r1, #2147483648	; 0x80000000
 80004d4:	f021 4100 	bic.w	r1, r1, #2147483648	; 0x80000000
 80004d8:	e720      	b.n	800031c <__adddf3+0x138>
 80004da:	bf00      	nop

080004dc <__aeabi_ul2d>:
 80004dc:	ea50 0201 	orrs.w	r2, r0, r1
 80004e0:	bf08      	it	eq
 80004e2:	4770      	bxeq	lr
 80004e4:	b530      	push	{r4, r5, lr}
 80004e6:	f04f 0500 	mov.w	r5, #0
 80004ea:	e00a      	b.n	8000502 <__aeabi_l2d+0x16>

080004ec <__aeabi_l2d>:
 80004ec:	ea50 0201 	orrs.w	r2, r0, r1
 80004f0:	bf08      	it	eq
 80004f2:	4770      	bxeq	lr
 80004f4:	b530      	push	{r4, r5, lr}
 80004f6:	f011 4500 	ands.w	r5, r1, #2147483648	; 0x80000000
 80004fa:	d502      	bpl.n	8000502 <__aeabi_l2d+0x16>
 80004fc:	4240      	negs	r0, r0
 80004fe:	eb61 0141 	sbc.w	r1, r1, r1, lsl #1
 8000502:	f44f 6480 	mov.w	r4, #1024	; 0x400
 8000506:	f104 0432 	add.w	r4, r4, #50	; 0x32
 800050a:	ea5f 5c91 	movs.w	ip, r1, lsr #22
 800050e:	f43f aedc 	beq.w	80002ca <__adddf3+0xe6>
 8000512:	f04f 0203 	mov.w	r2, #3
 8000516:	ea5f 0cdc 	movs.w	ip, ip, lsr #3
 800051a:	bf18      	it	ne
 800051c:	3203      	addne	r2, #3
 800051e:	ea5f 0cdc 	movs.w	ip, ip, lsr #3
 8000522:	bf18      	it	ne
 8000524:	3203      	addne	r2, #3
 8000526:	eb02 02dc 	add.w	r2, r2, ip, lsr #3
 800052a:	f1c2 0320 	rsb	r3, r2, #32
 800052e:	fa00 fc03 	lsl.w	ip, r0, r3
 8000532:	fa20 f002 	lsr.w	r0, r0, r2
 8000536:	fa01 fe03 	lsl.w	lr, r1, r3
 800053a:	ea40 000e 	orr.w	r0, r0, lr
 800053e:	fa21 f102 	lsr.w	r1, r1, r2
 8000542:	4414      	add	r4, r2
 8000544:	e6c1      	b.n	80002ca <__adddf3+0xe6>
 8000546:	bf00      	nop

08000548 <__aeabi_dmul>:
 8000548:	b570      	push	{r4, r5, r6, lr}
 800054a:	f04f 0cff 	mov.w	ip, #255	; 0xff
 800054e:	f44c 6ce0 	orr.w	ip, ip, #1792	; 0x700
 8000552:	ea1c 5411 	ands.w	r4, ip, r1, lsr #20
 8000556:	bf1d      	ittte	ne
 8000558:	ea1c 5513 	andsne.w	r5, ip, r3, lsr #20
 800055c:	ea94 0f0c 	teqne	r4, ip
 8000560:	ea95 0f0c 	teqne	r5, ip
 8000564:	f000 f8de 	bleq	8000724 <__aeabi_dmul+0x1dc>
 8000568:	442c      	add	r4, r5
 800056a:	ea81 0603 	eor.w	r6, r1, r3
 800056e:	ea21 514c 	bic.w	r1, r1, ip, lsl #21
 8000572:	ea23 534c 	bic.w	r3, r3, ip, lsl #21
 8000576:	ea50 3501 	orrs.w	r5, r0, r1, lsl #12
 800057a:	bf18      	it	ne
 800057c:	ea52 3503 	orrsne.w	r5, r2, r3, lsl #12
 8000580:	f441 1180 	orr.w	r1, r1, #1048576	; 0x100000
 8000584:	f443 1380 	orr.w	r3, r3, #1048576	; 0x100000
 8000588:	d038      	beq.n	80005fc <__aeabi_dmul+0xb4>
 800058a:	fba0 ce02 	umull	ip, lr, r0, r2
 800058e:	f04f 0500 	mov.w	r5, #0
 8000592:	fbe1 e502 	umlal	lr, r5, r1, r2
 8000596:	f006 4200 	and.w	r2, r6, #2147483648	; 0x80000000
 800059a:	fbe0 e503 	umlal	lr, r5, r0, r3
 800059e:	f04f 0600 	mov.w	r6, #0
 80005a2:	fbe1 5603 	umlal	r5, r6, r1, r3
 80005a6:	f09c 0f00 	teq	ip, #0
 80005aa:	bf18      	it	ne
 80005ac:	f04e 0e01 	orrne.w	lr, lr, #1
 80005b0:	f1a4 04ff 	sub.w	r4, r4, #255	; 0xff
 80005b4:	f5b6 7f00 	cmp.w	r6, #512	; 0x200
 80005b8:	f564 7440 	sbc.w	r4, r4, #768	; 0x300
 80005bc:	d204      	bcs.n	80005c8 <__aeabi_dmul+0x80>
 80005be:	ea5f 0e4e 	movs.w	lr, lr, lsl #1
 80005c2:	416d      	adcs	r5, r5
 80005c4:	eb46 0606 	adc.w	r6, r6, r6
 80005c8:	ea42 21c6 	orr.w	r1, r2, r6, lsl #11
 80005cc:	ea41 5155 	orr.w	r1, r1, r5, lsr #21
 80005d0:	ea4f 20c5 	mov.w	r0, r5, lsl #11
 80005d4:	ea40 505e 	orr.w	r0, r0, lr, lsr #21
 80005d8:	ea4f 2ece 	mov.w	lr, lr, lsl #11
 80005dc:	f1b4 0cfd 	subs.w	ip, r4, #253	; 0xfd
 80005e0:	bf88      	it	hi
 80005e2:	f5bc 6fe0 	cmphi.w	ip, #1792	; 0x700
 80005e6:	d81e      	bhi.n	8000626 <__aeabi_dmul+0xde>
 80005e8:	f1be 4f00 	cmp.w	lr, #2147483648	; 0x80000000
 80005ec:	bf08      	it	eq
 80005ee:	ea5f 0e50 	movseq.w	lr, r0, lsr #1
 80005f2:	f150 0000 	adcs.w	r0, r0, #0
 80005f6:	eb41 5104 	adc.w	r1, r1, r4, lsl #20
 80005fa:	bd70      	pop	{r4, r5, r6, pc}
 80005fc:	f006 4600 	and.w	r6, r6, #2147483648	; 0x80000000
 8000600:	ea46 0101 	orr.w	r1, r6, r1
 8000604:	ea40 0002 	orr.w	r0, r0, r2
 8000608:	ea81 0103 	eor.w	r1, r1, r3
 800060c:	ebb4 045c 	subs.w	r4, r4, ip, lsr #1
 8000610:	bfc2      	ittt	gt
 8000612:	ebd4 050c 	rsbsgt	r5, r4, ip
 8000616:	ea41 5104 	orrgt.w	r1, r1, r4, lsl #20
 800061a:	bd70      	popgt	{r4, r5, r6, pc}
 800061c:	f441 1180 	orr.w	r1, r1, #1048576	; 0x100000
 8000620:	f04f 0e00 	mov.w	lr, #0
 8000624:	3c01      	subs	r4, #1
 8000626:	f300 80ab 	bgt.w	8000780 <__aeabi_dmul+0x238>
 800062a:	f114 0f36 	cmn.w	r4, #54	; 0x36
 800062e:	bfde      	ittt	le
 8000630:	2000      	movle	r0, #0
 8000632:	f001 4100 	andle.w	r1, r1, #2147483648	; 0x80000000
 8000636:	bd70      	pople	{r4, r5, r6, pc}
 8000638:	f1c4 0400 	rsb	r4, r4, #0
 800063c:	3c20      	subs	r4, #32
 800063e:	da35      	bge.n	80006ac <__aeabi_dmul+0x164>
 8000640:	340c      	adds	r4, #12
 8000642:	dc1b      	bgt.n	800067c <__aeabi_dmul+0x134>
 8000644:	f104 0414 	add.w	r4, r4, #20
 8000648:	f1c4 0520 	rsb	r5, r4, #32
 800064c:	fa00 f305 	lsl.w	r3, r0, r5
 8000650:	fa20 f004 	lsr.w	r0, r0, r4
 8000654:	fa01 f205 	lsl.w	r2, r1, r5
 8000658:	ea40 0002 	orr.w	r0, r0, r2
 800065c:	f001 4200 	and.w	r2, r1, #2147483648	; 0x80000000
 8000660:	f021 4100 	bic.w	r1, r1, #2147483648	; 0x80000000
 8000664:	eb10 70d3 	adds.w	r0, r0, r3, lsr #31
 8000668:	fa21 f604 	lsr.w	r6, r1, r4
 800066c:	eb42 0106 	adc.w	r1, r2, r6
 8000670:	ea5e 0e43 	orrs.w	lr, lr, r3, lsl #1
 8000674:	bf08      	it	eq
 8000676:	ea20 70d3 	biceq.w	r0, r0, r3, lsr #31
 800067a:	bd70      	pop	{r4, r5, r6, pc}
 800067c:	f1c4 040c 	rsb	r4, r4, #12
 8000680:	f1c4 0520 	rsb	r5, r4, #32
 8000684:	fa00 f304 	lsl.w	r3, r0, r4
 8000688:	fa20 f005 	lsr.w	r0, r0, r5
 800068c:	fa01 f204 	lsl.w	r2, r1, r4
 8000690:	ea40 0002 	orr.w	r0, r0, r2
 8000694:	f001 4100 	and.w	r1, r1, #2147483648	; 0x80000000
 8000698:	eb10 70d3 	adds.w	r0, r0, r3, lsr #31
 800069c:	f141 0100 	adc.w	r1, r1, #0
 80006a0:	ea5e 0e43 	orrs.w	lr, lr, r3, lsl #1
 80006a4:	bf08      	it	eq
 80006a6:	ea20 70d3 	biceq.w	r0, r0, r3, lsr #31
 80006aa:	bd70      	pop	{r4, r5, r6, pc}
 80006ac:	f1c4 0520 	rsb	r5, r4, #32
 80006b0:	fa00 f205 	lsl.w	r2, r0, r5
 80006b4:	ea4e 0e02 	orr.w	lr, lr, r2
 80006b8:	fa20 f304 	lsr.w	r3, r0, r4
 80006bc:	fa01 f205 	lsl.w	r2, r1, r5
 80006c0:	ea43 0302 	orr.w	r3, r3, r2
 80006c4:	fa21 f004 	lsr.w	r0, r1, r4
 80006c8:	f001 4100 	and.w	r1, r1, #2147483648	; 0x80000000
 80006cc:	fa21 f204 	lsr.w	r2, r1, r4
 80006d0:	ea20 0002 	bic.w	r0, r0, r2
 80006d4:	eb00 70d3 	add.w	r0, r0, r3, lsr #31
 80006d8:	ea5e 0e43 	orrs.w	lr, lr, r3, lsl #1
 80006dc:	bf08      	it	eq
 80006de:	ea20 70d3 	biceq.w	r0, r0, r3, lsr #31
 80006e2:	bd70      	pop	{r4, r5, r6, pc}
 80006e4:	f094 0f00 	teq	r4, #0
 80006e8:	d10f      	bne.n	800070a <__aeabi_dmul+0x1c2>
 80006ea:	f001 4600 	and.w	r6, r1, #2147483648	; 0x80000000
 80006ee:	0040      	lsls	r0, r0, #1
 80006f0:	eb41 0101 	adc.w	r1, r1, r1
 80006f4:	f411 1f80 	tst.w	r1, #1048576	; 0x100000
 80006f8:	bf08      	it	eq
 80006fa:	3c01      	subeq	r4, #1
 80006fc:	d0f7      	beq.n	80006ee <__aeabi_dmul+0x1a6>
 80006fe:	ea41 0106 	orr.w	r1, r1, r6
 8000702:	f095 0f00 	teq	r5, #0
 8000706:	bf18      	it	ne
 8000708:	4770      	bxne	lr
 800070a:	f003 4600 	and.w	r6, r3, #2147483648	; 0x80000000
 800070e:	0052      	lsls	r2, r2, #1
 8000710:	eb43 0303 	adc.w	r3, r3, r3
 8000714:	f413 1f80 	tst.w	r3, #1048576	; 0x100000
 8000718:	bf08      	it	eq
 800071a:	3d01      	subeq	r5, #1
 800071c:	d0f7      	beq.n	800070e <__aeabi_dmul+0x1c6>
 800071e:	ea43 0306 	orr.w	r3, r3, r6
 8000722:	4770      	bx	lr
 8000724:	ea94 0f0c 	teq	r4, ip
 8000728:	ea0c 5513 	and.w	r5, ip, r3, lsr #20
 800072c:	bf18      	it	ne
 800072e:	ea95 0f0c 	teqne	r5, ip
 8000732:	d00c      	beq.n	800074e <__aeabi_dmul+0x206>
 8000734:	ea50 0641 	orrs.w	r6, r0, r1, lsl #1
 8000738:	bf18      	it	ne
 800073a:	ea52 0643 	orrsne.w	r6, r2, r3, lsl #1
 800073e:	d1d1      	bne.n	80006e4 <__aeabi_dmul+0x19c>
 8000740:	ea81 0103 	eor.w	r1, r1, r3
 8000744:	f001 4100 	and.w	r1, r1, #2147483648	; 0x80000000
 8000748:	f04f 0000 	mov.w	r0, #0
 800074c:	bd70      	pop	{r4, r5, r6, pc}
 800074e:	ea50 0641 	orrs.w	r6, r0, r1, lsl #1
 8000752:	bf06      	itte	eq
 8000754:	4610      	moveq	r0, r2
 8000756:	4619      	moveq	r1, r3
 8000758:	ea52 0643 	orrsne.w	r6, r2, r3, lsl #1
 800075c:	d019      	beq.n	8000792 <__aeabi_dmul+0x24a>
 800075e:	ea94 0f0c 	teq	r4, ip
 8000762:	d102      	bne.n	800076a <__aeabi_dmul+0x222>
 8000764:	ea50 3601 	orrs.w	r6, r0, r1, lsl #12
 8000768:	d113      	bne.n	8000792 <__aeabi_dmul+0x24a>
 800076a:	ea95 0f0c 	teq	r5, ip
 800076e:	d105      	bne.n	800077c <__aeabi_dmul+0x234>
 8000770:	ea52 3603 	orrs.w	r6, r2, r3, lsl #12
 8000774:	bf1c      	itt	ne
 8000776:	4610      	movne	r0, r2
 8000778:	4619      	movne	r1, r3
 800077a:	d10a      	bne.n	8000792 <__aeabi_dmul+0x24a>
 800077c:	ea81 0103 	eor.w	r1, r1, r3
 8000780:	f001 4100 	and.w	r1, r1, #2147483648	; 0x80000000
 8000784:	f041 41fe 	orr.w	r1, r1, #2130706432	; 0x7f000000
 8000788:	f441 0170 	orr.w	r1, r1, #15728640	; 0xf00000
 800078c:	f04f 0000 	mov.w	r0, #0
 8000790:	bd70      	pop	{r4, r5, r6, pc}
 8000792:	f041 41fe 	orr.w	r1, r1, #2130706432	; 0x7f000000
 8000796:	f441 0178 	orr.w	r1, r1, #16252928	; 0xf80000
 800079a:	bd70      	pop	{r4, r5, r6, pc}

0800079c <__aeabi_ddiv>:
 800079c:	b570      	push	{r4, r5, r6, lr}
 800079e:	f04f 0cff 	mov.w	ip, #255	; 0xff
 80007a2:	f44c 6ce0 	orr.w	ip, ip, #1792	; 0x700
 80007a6:	ea1c 5411 	ands.w	r4, ip, r1, lsr #20
 80007aa:	bf1d      	ittte	ne
 80007ac:	ea1c 5513 	andsne.w	r5, ip, r3, lsr #20
 80007b0:	ea94 0f0c 	teqne	r4, ip
 80007b4:	ea95 0f0c 	teqne	r5, ip
 80007b8:	f000 f8a7 	bleq	800090a <__aeabi_ddiv+0x16e>
 80007bc:	eba4 0405 	sub.w	r4, r4, r5
 80007c0:	ea81 0e03 	eor.w	lr, r1, r3
 80007c4:	ea52 3503 	orrs.w	r5, r2, r3, lsl #12
 80007c8:	ea4f 3101 	mov.w	r1, r1, lsl #12
 80007cc:	f000 8088 	beq.w	80008e0 <__aeabi_ddiv+0x144>
 80007d0:	ea4f 3303 	mov.w	r3, r3, lsl #12
 80007d4:	f04f 5580 	mov.w	r5, #268435456	; 0x10000000
 80007d8:	ea45 1313 	orr.w	r3, r5, r3, lsr #4
 80007dc:	ea43 6312 	orr.w	r3, r3, r2, lsr #24
 80007e0:	ea4f 2202 	mov.w	r2, r2, lsl #8
 80007e4:	ea45 1511 	orr.w	r5, r5, r1, lsr #4
 80007e8:	ea45 6510 	orr.w	r5, r5, r0, lsr #24
 80007ec:	ea4f 2600 	mov.w	r6, r0, lsl #8
 80007f0:	f00e 4100 	and.w	r1, lr, #2147483648	; 0x80000000
 80007f4:	429d      	cmp	r5, r3
 80007f6:	bf08      	it	eq
 80007f8:	4296      	cmpeq	r6, r2
 80007fa:	f144 04fd 	adc.w	r4, r4, #253	; 0xfd
 80007fe:	f504 7440 	add.w	r4, r4, #768	; 0x300
 8000802:	d202      	bcs.n	800080a <__aeabi_ddiv+0x6e>
 8000804:	085b      	lsrs	r3, r3, #1
 8000806:	ea4f 0232 	mov.w	r2, r2, rrx
 800080a:	1ab6      	subs	r6, r6, r2
 800080c:	eb65 0503 	sbc.w	r5, r5, r3
 8000810:	085b      	lsrs	r3, r3, #1
 8000812:	ea4f 0232 	mov.w	r2, r2, rrx
 8000816:	f44f 1080 	mov.w	r0, #1048576	; 0x100000
 800081a:	f44f 2c00 	mov.w	ip, #524288	; 0x80000
 800081e:	ebb6 0e02 	subs.w	lr, r6, r2
 8000822:	eb75 0e03 	sbcs.w	lr, r5, r3
 8000826:	bf22      	ittt	cs
 8000828:	1ab6      	subcs	r6, r6, r2
 800082a:	4675      	movcs	r5, lr
 800082c:	ea40 000c 	orrcs.w	r0, r0, ip
 8000830:	085b      	lsrs	r3, r3, #1
 8000832:	ea4f 0232 	mov.w	r2, r2, rrx
 8000836:	ebb6 0e02 	subs.w	lr, r6, r2
 800083a:	eb75 0e03 	sbcs.w	lr, r5, r3
 800083e:	bf22      	ittt	cs
 8000840:	1ab6      	subcs	r6, r6, r2
 8000842:	4675      	movcs	r5, lr
 8000844:	ea40 005c 	orrcs.w	r0, r0, ip, lsr #1
 8000848:	085b      	lsrs	r3, r3, #1
 800084a:	ea4f 0232 	mov.w	r2, r2, rrx
 800084e:	ebb6 0e02 	subs.w	lr, r6, r2
 8000852:	eb75 0e03 	sbcs.w	lr, r5, r3
 8000856:	bf22      	ittt	cs
 8000858:	1ab6      	subcs	r6, r6, r2
 800085a:	4675      	movcs	r5, lr
 800085c:	ea40 009c 	orrcs.w	r0, r0, ip, lsr #2
 8000860:	085b      	lsrs	r3, r3, #1
 8000862:	ea4f 0232 	mov.w	r2, r2, rrx
 8000866:	ebb6 0e02 	subs.w	lr, r6, r2
 800086a:	eb75 0e03 	sbcs.w	lr, r5, r3
 800086e:	bf22      	ittt	cs
 8000870:	1ab6      	subcs	r6, r6, r2
 8000872:	4675      	movcs	r5, lr
 8000874:	ea40 00dc 	orrcs.w	r0, r0, ip, lsr #3
 8000878:	ea55 0e06 	orrs.w	lr, r5, r6
 800087c:	d018      	beq.n	80008b0 <__aeabi_ddiv+0x114>
 800087e:	ea4f 1505 	mov.w	r5, r5, lsl #4
 8000882:	ea45 7516 	orr.w	r5, r5, r6, lsr #28
 8000886:	ea4f 1606 	mov.w	r6, r6, lsl #4
 800088a:	ea4f 03c3 	mov.w	r3, r3, lsl #3
 800088e:	ea43 7352 	orr.w	r3, r3, r2, lsr #29
 8000892:	ea4f 02c2 	mov.w	r2, r2, lsl #3
 8000896:	ea5f 1c1c 	movs.w	ip, ip, lsr #4
 800089a:	d1c0      	bne.n	800081e <__aeabi_ddiv+0x82>
 800089c:	f411 1f80 	tst.w	r1, #1048576	; 0x100000
 80008a0:	d10b      	bne.n	80008ba <__aeabi_ddiv+0x11e>
 80008a2:	ea41 0100 	orr.w	r1, r1, r0
 80008a6:	f04f 0000 	mov.w	r0, #0
 80008aa:	f04f 4c00 	mov.w	ip, #2147483648	; 0x80000000
 80008ae:	e7b6      	b.n	800081e <__aeabi_ddiv+0x82>
 80008b0:	f411 1f80 	tst.w	r1, #1048576	; 0x100000
 80008b4:	bf04      	itt	eq
 80008b6:	4301      	orreq	r1, r0
 80008b8:	2000      	moveq	r0, #0
 80008ba:	f1b4 0cfd 	subs.w	ip, r4, #253	; 0xfd
 80008be:	bf88      	it	hi
 80008c0:	f5bc 6fe0 	cmphi.w	ip, #1792	; 0x700
 80008c4:	f63f aeaf 	bhi.w	8000626 <__aeabi_dmul+0xde>
 80008c8:	ebb5 0c03 	subs.w	ip, r5, r3
 80008cc:	bf04      	itt	eq
 80008ce:	ebb6 0c02 	subseq.w	ip, r6, r2
 80008d2:	ea5f 0c50 	movseq.w	ip, r0, lsr #1
 80008d6:	f150 0000 	adcs.w	r0, r0, #0
 80008da:	eb41 5104 	adc.w	r1, r1, r4, lsl #20
 80008de:	bd70      	pop	{r4, r5, r6, pc}
 80008e0:	f00e 4e00 	and.w	lr, lr, #2147483648	; 0x80000000
 80008e4:	ea4e 3111 	orr.w	r1, lr, r1, lsr #12
 80008e8:	eb14 045c 	adds.w	r4, r4, ip, lsr #1
 80008ec:	bfc2      	ittt	gt
 80008ee:	ebd4 050c 	rsbsgt	r5, r4, ip
 80008f2:	ea41 5104 	orrgt.w	r1, r1, r4, lsl #20
 80008f6:	bd70      	popgt	{r4, r5, r6, pc}
 80008f8:	f441 1180 	orr.w	r1, r1, #1048576	; 0x100000
 80008fc:	f04f 0e00 	mov.w	lr, #0
 8000900:	3c01      	subs	r4, #1
 8000902:	e690      	b.n	8000626 <__aeabi_dmul+0xde>
 8000904:	ea45 0e06 	orr.w	lr, r5, r6
 8000908:	e68d      	b.n	8000626 <__aeabi_dmul+0xde>
 800090a:	ea0c 5513 	and.w	r5, ip, r3, lsr #20
 800090e:	ea94 0f0c 	teq	r4, ip
 8000912:	bf08      	it	eq
 8000914:	ea95 0f0c 	teqeq	r5, ip
 8000918:	f43f af3b 	beq.w	8000792 <__aeabi_dmul+0x24a>
 800091c:	ea94 0f0c 	teq	r4, ip
 8000920:	d10a      	bne.n	8000938 <__aeabi_ddiv+0x19c>
 8000922:	ea50 3401 	orrs.w	r4, r0, r1, lsl #12
 8000926:	f47f af34 	bne.w	8000792 <__aeabi_dmul+0x24a>
 800092a:	ea95 0f0c 	teq	r5, ip
 800092e:	f47f af25 	bne.w	800077c <__aeabi_dmul+0x234>
 8000932:	4610      	mov	r0, r2
 8000934:	4619      	mov	r1, r3
 8000936:	e72c      	b.n	8000792 <__aeabi_dmul+0x24a>
 8000938:	ea95 0f0c 	teq	r5, ip
 800093c:	d106      	bne.n	800094c <__aeabi_ddiv+0x1b0>
 800093e:	ea52 3503 	orrs.w	r5, r2, r3, lsl #12
 8000942:	f43f aefd 	beq.w	8000740 <__aeabi_dmul+0x1f8>
 8000946:	4610      	mov	r0, r2
 8000948:	4619      	mov	r1, r3
 800094a:	e722      	b.n	8000792 <__aeabi_dmul+0x24a>
 800094c:	ea50 0641 	orrs.w	r6, r0, r1, lsl #1
 8000950:	bf18      	it	ne
 8000952:	ea52 0643 	orrsne.w	r6, r2, r3, lsl #1
 8000956:	f47f aec5 	bne.w	80006e4 <__aeabi_dmul+0x19c>
 800095a:	ea50 0441 	orrs.w	r4, r0, r1, lsl #1
 800095e:	f47f af0d 	bne.w	800077c <__aeabi_dmul+0x234>
 8000962:	ea52 0543 	orrs.w	r5, r2, r3, lsl #1
 8000966:	f47f aeeb 	bne.w	8000740 <__aeabi_dmul+0x1f8>
 800096a:	e712      	b.n	8000792 <__aeabi_dmul+0x24a>

0800096c <__aeabi_d2uiz>:
 800096c:	004a      	lsls	r2, r1, #1
 800096e:	d211      	bcs.n	8000994 <__aeabi_d2uiz+0x28>
 8000970:	f512 1200 	adds.w	r2, r2, #2097152	; 0x200000
 8000974:	d211      	bcs.n	800099a <__aeabi_d2uiz+0x2e>
 8000976:	d50d      	bpl.n	8000994 <__aeabi_d2uiz+0x28>
 8000978:	f46f 7378 	mvn.w	r3, #992	; 0x3e0
 800097c:	ebb3 5262 	subs.w	r2, r3, r2, asr #21
 8000980:	d40e      	bmi.n	80009a0 <__aeabi_d2uiz+0x34>
 8000982:	ea4f 23c1 	mov.w	r3, r1, lsl #11
 8000986:	f043 4300 	orr.w	r3, r3, #2147483648	; 0x80000000
 800098a:	ea43 5350 	orr.w	r3, r3, r0, lsr #21
 800098e:	fa23 f002 	lsr.w	r0, r3, r2
 8000992:	4770      	bx	lr
 8000994:	f04f 0000 	mov.w	r0, #0
 8000998:	4770      	bx	lr
 800099a:	ea50 3001 	orrs.w	r0, r0, r1, lsl #12
 800099e:	d102      	bne.n	80009a6 <__aeabi_d2uiz+0x3a>
 80009a0:	f04f 30ff 	mov.w	r0, #4294967295
 80009a4:	4770      	bx	lr
 80009a6:	f04f 0000 	mov.w	r0, #0
 80009aa:	4770      	bx	lr

080009ac <__aeabi_uldivmod>:
 80009ac:	b953      	cbnz	r3, 80009c4 <__aeabi_uldivmod+0x18>
 80009ae:	b94a      	cbnz	r2, 80009c4 <__aeabi_uldivmod+0x18>
 80009b0:	2900      	cmp	r1, #0
 80009b2:	bf08      	it	eq
 80009b4:	2800      	cmpeq	r0, #0
 80009b6:	bf1c      	itt	ne
 80009b8:	f04f 31ff 	movne.w	r1, #4294967295
 80009bc:	f04f 30ff 	movne.w	r0, #4294967295
 80009c0:	f000 b97a 	b.w	8000cb8 <__aeabi_idiv0>
 80009c4:	f1ad 0c08 	sub.w	ip, sp, #8
 80009c8:	e96d ce04 	strd	ip, lr, [sp, #-16]!
 80009cc:	f000 f806 	bl	80009dc <__udivmoddi4>
 80009d0:	f8dd e004 	ldr.w	lr, [sp, #4]
 80009d4:	e9dd 2302 	ldrd	r2, r3, [sp, #8]
 80009d8:	b004      	add	sp, #16
 80009da:	4770      	bx	lr

080009dc <__udivmoddi4>:
 80009dc:	e92d 47f0 	stmdb	sp!, {r4, r5, r6, r7, r8, r9, sl, lr}
 80009e0:	468c      	mov	ip, r1
 80009e2:	460d      	mov	r5, r1
 80009e4:	4604      	mov	r4, r0
 80009e6:	9e08      	ldr	r6, [sp, #32]
 80009e8:	2b00      	cmp	r3, #0
 80009ea:	d151      	bne.n	8000a90 <__udivmoddi4+0xb4>
 80009ec:	428a      	cmp	r2, r1
 80009ee:	4617      	mov	r7, r2
 80009f0:	d96d      	bls.n	8000ace <__udivmoddi4+0xf2>
 80009f2:	fab2 fe82 	clz	lr, r2
 80009f6:	f1be 0f00 	cmp.w	lr, #0
 80009fa:	d00b      	beq.n	8000a14 <__udivmoddi4+0x38>
 80009fc:	f1ce 0c20 	rsb	ip, lr, #32
 8000a00:	fa01 f50e 	lsl.w	r5, r1, lr
 8000a04:	fa20 fc0c 	lsr.w	ip, r0, ip
 8000a08:	fa02 f70e 	lsl.w	r7, r2, lr
 8000a0c:	ea4c 0c05 	orr.w	ip, ip, r5
 8000a10:	fa00 f40e 	lsl.w	r4, r0, lr
 8000a14:	ea4f 4a17 	mov.w	sl, r7, lsr #16
 8000a18:	0c25      	lsrs	r5, r4, #16
 8000a1a:	fbbc f8fa 	udiv	r8, ip, sl
 8000a1e:	fa1f f987 	uxth.w	r9, r7
 8000a22:	fb0a cc18 	mls	ip, sl, r8, ip
 8000a26:	ea45 450c 	orr.w	r5, r5, ip, lsl #16
 8000a2a:	fb08 f309 	mul.w	r3, r8, r9
 8000a2e:	42ab      	cmp	r3, r5
 8000a30:	d90a      	bls.n	8000a48 <__udivmoddi4+0x6c>
 8000a32:	19ed      	adds	r5, r5, r7
 8000a34:	f108 32ff 	add.w	r2, r8, #4294967295
 8000a38:	f080 8123 	bcs.w	8000c82 <__udivmoddi4+0x2a6>
 8000a3c:	42ab      	cmp	r3, r5
 8000a3e:	f240 8120 	bls.w	8000c82 <__udivmoddi4+0x2a6>
 8000a42:	f1a8 0802 	sub.w	r8, r8, #2
 8000a46:	443d      	add	r5, r7
 8000a48:	1aed      	subs	r5, r5, r3
 8000a4a:	b2a4      	uxth	r4, r4
 8000a4c:	fbb5 f0fa 	udiv	r0, r5, sl
 8000a50:	fb0a 5510 	mls	r5, sl, r0, r5
 8000a54:	ea44 4405 	orr.w	r4, r4, r5, lsl #16
 8000a58:	fb00 f909 	mul.w	r9, r0, r9
 8000a5c:	45a1      	cmp	r9, r4
 8000a5e:	d909      	bls.n	8000a74 <__udivmoddi4+0x98>
 8000a60:	19e4      	adds	r4, r4, r7
 8000a62:	f100 33ff 	add.w	r3, r0, #4294967295
 8000a66:	f080 810a 	bcs.w	8000c7e <__udivmoddi4+0x2a2>
 8000a6a:	45a1      	cmp	r9, r4
 8000a6c:	f240 8107 	bls.w	8000c7e <__udivmoddi4+0x2a2>
 8000a70:	3802      	subs	r0, #2
 8000a72:	443c      	add	r4, r7
 8000a74:	eba4 0409 	sub.w	r4, r4, r9
 8000a78:	ea40 4008 	orr.w	r0, r0, r8, lsl #16
 8000a7c:	2100      	movs	r1, #0
 8000a7e:	2e00      	cmp	r6, #0
 8000a80:	d061      	beq.n	8000b46 <__udivmoddi4+0x16a>
 8000a82:	fa24 f40e 	lsr.w	r4, r4, lr
 8000a86:	2300      	movs	r3, #0
 8000a88:	6034      	str	r4, [r6, #0]
 8000a8a:	6073      	str	r3, [r6, #4]
 8000a8c:	e8bd 87f0 	ldmia.w	sp!, {r4, r5, r6, r7, r8, r9, sl, pc}
 8000a90:	428b      	cmp	r3, r1
 8000a92:	d907      	bls.n	8000aa4 <__udivmoddi4+0xc8>
 8000a94:	2e00      	cmp	r6, #0
 8000a96:	d054      	beq.n	8000b42 <__udivmoddi4+0x166>
 8000a98:	2100      	movs	r1, #0
 8000a9a:	e886 0021 	stmia.w	r6, {r0, r5}
 8000a9e:	4608      	mov	r0, r1
 8000aa0:	e8bd 87f0 	ldmia.w	sp!, {r4, r5, r6, r7, r8, r9, sl, pc}
 8000aa4:	fab3 f183 	clz	r1, r3
 8000aa8:	2900      	cmp	r1, #0
 8000aaa:	f040 808e 	bne.w	8000bca <__udivmoddi4+0x1ee>
 8000aae:	42ab      	cmp	r3, r5
 8000ab0:	d302      	bcc.n	8000ab8 <__udivmoddi4+0xdc>
 8000ab2:	4282      	cmp	r2, r0
 8000ab4:	f200 80fa 	bhi.w	8000cac <__udivmoddi4+0x2d0>
 8000ab8:	1a84      	subs	r4, r0, r2
 8000aba:	eb65 0503 	sbc.w	r5, r5, r3
 8000abe:	2001      	movs	r0, #1
 8000ac0:	46ac      	mov	ip, r5
 8000ac2:	2e00      	cmp	r6, #0
 8000ac4:	d03f      	beq.n	8000b46 <__udivmoddi4+0x16a>
 8000ac6:	e886 1010 	stmia.w	r6, {r4, ip}
 8000aca:	e8bd 87f0 	ldmia.w	sp!, {r4, r5, r6, r7, r8, r9, sl, pc}
 8000ace:	b912      	cbnz	r2, 8000ad6 <__udivmoddi4+0xfa>
 8000ad0:	2701      	movs	r7, #1
 8000ad2:	fbb7 f7f2 	udiv	r7, r7, r2
 8000ad6:	fab7 fe87 	clz	lr, r7
 8000ada:	f1be 0f00 	cmp.w	lr, #0
 8000ade:	d134      	bne.n	8000b4a <__udivmoddi4+0x16e>
 8000ae0:	1beb      	subs	r3, r5, r7
 8000ae2:	0c3a      	lsrs	r2, r7, #16
 8000ae4:	fa1f fc87 	uxth.w	ip, r7
 8000ae8:	2101      	movs	r1, #1
 8000aea:	fbb3 f8f2 	udiv	r8, r3, r2
 8000aee:	0c25      	lsrs	r5, r4, #16
 8000af0:	fb02 3318 	mls	r3, r2, r8, r3
 8000af4:	ea45 4503 	orr.w	r5, r5, r3, lsl #16
 8000af8:	fb0c f308 	mul.w	r3, ip, r8
 8000afc:	42ab      	cmp	r3, r5
 8000afe:	d907      	bls.n	8000b10 <__udivmoddi4+0x134>
 8000b00:	19ed      	adds	r5, r5, r7
 8000b02:	f108 30ff 	add.w	r0, r8, #4294967295
 8000b06:	d202      	bcs.n	8000b0e <__udivmoddi4+0x132>
 8000b08:	42ab      	cmp	r3, r5
 8000b0a:	f200 80d1 	bhi.w	8000cb0 <__udivmoddi4+0x2d4>
 8000b0e:	4680      	mov	r8, r0
 8000b10:	1aed      	subs	r5, r5, r3
 8000b12:	b2a3      	uxth	r3, r4
 8000b14:	fbb5 f0f2 	udiv	r0, r5, r2
 8000b18:	fb02 5510 	mls	r5, r2, r0, r5
 8000b1c:	ea43 4405 	orr.w	r4, r3, r5, lsl #16
 8000b20:	fb0c fc00 	mul.w	ip, ip, r0
 8000b24:	45a4      	cmp	ip, r4
 8000b26:	d907      	bls.n	8000b38 <__udivmoddi4+0x15c>
 8000b28:	19e4      	adds	r4, r4, r7
 8000b2a:	f100 33ff 	add.w	r3, r0, #4294967295
 8000b2e:	d202      	bcs.n	8000b36 <__udivmoddi4+0x15a>
 8000b30:	45a4      	cmp	ip, r4
 8000b32:	f200 80b8 	bhi.w	8000ca6 <__udivmoddi4+0x2ca>
 8000b36:	4618      	mov	r0, r3
 8000b38:	eba4 040c 	sub.w	r4, r4, ip
 8000b3c:	ea40 4008 	orr.w	r0, r0, r8, lsl #16
 8000b40:	e79d      	b.n	8000a7e <__udivmoddi4+0xa2>
 8000b42:	4631      	mov	r1, r6
 8000b44:	4630      	mov	r0, r6
 8000b46:	e8bd 87f0 	ldmia.w	sp!, {r4, r5, r6, r7, r8, r9, sl, pc}
 8000b4a:	f1ce 0420 	rsb	r4, lr, #32
 8000b4e:	fa05 f30e 	lsl.w	r3, r5, lr
 8000b52:	fa07 f70e 	lsl.w	r7, r7, lr
 8000b56:	fa20 f804 	lsr.w	r8, r0, r4
 8000b5a:	0c3a      	lsrs	r2, r7, #16
 8000b5c:	fa25 f404 	lsr.w	r4, r5, r4
 8000b60:	ea48 0803 	orr.w	r8, r8, r3
 8000b64:	fbb4 f1f2 	udiv	r1, r4, r2
 8000b68:	ea4f 4518 	mov.w	r5, r8, lsr #16
 8000b6c:	fb02 4411 	mls	r4, r2, r1, r4
 8000b70:	fa1f fc87 	uxth.w	ip, r7
 8000b74:	ea45 4504 	orr.w	r5, r5, r4, lsl #16
 8000b78:	fb01 f30c 	mul.w	r3, r1, ip
 8000b7c:	42ab      	cmp	r3, r5
 8000b7e:	fa00 f40e 	lsl.w	r4, r0, lr
 8000b82:	d909      	bls.n	8000b98 <__udivmoddi4+0x1bc>
 8000b84:	19ed      	adds	r5, r5, r7
 8000b86:	f101 30ff 	add.w	r0, r1, #4294967295
 8000b8a:	f080 808a 	bcs.w	8000ca2 <__udivmoddi4+0x2c6>
 8000b8e:	42ab      	cmp	r3, r5
 8000b90:	f240 8087 	bls.w	8000ca2 <__udivmoddi4+0x2c6>
 8000b94:	3902      	subs	r1, #2
 8000b96:	443d      	add	r5, r7
 8000b98:	1aeb      	subs	r3, r5, r3
 8000b9a:	fa1f f588 	uxth.w	r5, r8
 8000b9e:	fbb3 f0f2 	udiv	r0, r3, r2
 8000ba2:	fb02 3310 	mls	r3, r2, r0, r3
 8000ba6:	ea45 4503 	orr.w	r5, r5, r3, lsl #16
 8000baa:	fb00 f30c 	mul.w	r3, r0, ip
 8000bae:	42ab      	cmp	r3, r5
 8000bb0:	d907      	bls.n	8000bc2 <__udivmoddi4+0x1e6>
 8000bb2:	19ed      	adds	r5, r5, r7
 8000bb4:	f100 38ff 	add.w	r8, r0, #4294967295
 8000bb8:	d26f      	bcs.n	8000c9a <__udivmoddi4+0x2be>
 8000bba:	42ab      	cmp	r3, r5
 8000bbc:	d96d      	bls.n	8000c9a <__udivmoddi4+0x2be>
 8000bbe:	3802      	subs	r0, #2
 8000bc0:	443d      	add	r5, r7
 8000bc2:	1aeb      	subs	r3, r5, r3
 8000bc4:	ea40 4101 	orr.w	r1, r0, r1, lsl #16
 8000bc8:	e78f      	b.n	8000aea <__udivmoddi4+0x10e>
 8000bca:	f1c1 0720 	rsb	r7, r1, #32
 8000bce:	fa22 f807 	lsr.w	r8, r2, r7
 8000bd2:	408b      	lsls	r3, r1
 8000bd4:	fa05 f401 	lsl.w	r4, r5, r1
 8000bd8:	ea48 0303 	orr.w	r3, r8, r3
 8000bdc:	fa20 fe07 	lsr.w	lr, r0, r7
 8000be0:	ea4f 4c13 	mov.w	ip, r3, lsr #16
 8000be4:	40fd      	lsrs	r5, r7
 8000be6:	ea4e 0e04 	orr.w	lr, lr, r4
 8000bea:	fbb5 f9fc 	udiv	r9, r5, ip
 8000bee:	ea4f 441e 	mov.w	r4, lr, lsr #16
 8000bf2:	fb0c 5519 	mls	r5, ip, r9, r5
 8000bf6:	fa1f f883 	uxth.w	r8, r3
 8000bfa:	ea44 4505 	orr.w	r5, r4, r5, lsl #16
 8000bfe:	fb09 f408 	mul.w	r4, r9, r8
 8000c02:	42ac      	cmp	r4, r5
 8000c04:	fa02 f201 	lsl.w	r2, r2, r1
 8000c08:	fa00 fa01 	lsl.w	sl, r0, r1
 8000c0c:	d908      	bls.n	8000c20 <__udivmoddi4+0x244>
 8000c0e:	18ed      	adds	r5, r5, r3
 8000c10:	f109 30ff 	add.w	r0, r9, #4294967295
 8000c14:	d243      	bcs.n	8000c9e <__udivmoddi4+0x2c2>
 8000c16:	42ac      	cmp	r4, r5
 8000c18:	d941      	bls.n	8000c9e <__udivmoddi4+0x2c2>
 8000c1a:	f1a9 0902 	sub.w	r9, r9, #2
 8000c1e:	441d      	add	r5, r3
 8000c20:	1b2d      	subs	r5, r5, r4
 8000c22:	fa1f fe8e 	uxth.w	lr, lr
 8000c26:	fbb5 f0fc 	udiv	r0, r5, ip
 8000c2a:	fb0c 5510 	mls	r5, ip, r0, r5
 8000c2e:	ea4e 4405 	orr.w	r4, lr, r5, lsl #16
 8000c32:	fb00 f808 	mul.w	r8, r0, r8
 8000c36:	45a0      	cmp	r8, r4
 8000c38:	d907      	bls.n	8000c4a <__udivmoddi4+0x26e>
 8000c3a:	18e4      	adds	r4, r4, r3
 8000c3c:	f100 35ff 	add.w	r5, r0, #4294967295
 8000c40:	d229      	bcs.n	8000c96 <__udivmoddi4+0x2ba>
 8000c42:	45a0      	cmp	r8, r4
 8000c44:	d927      	bls.n	8000c96 <__udivmoddi4+0x2ba>
 8000c46:	3802      	subs	r0, #2
 8000c48:	441c      	add	r4, r3
 8000c4a:	ea40 4009 	orr.w	r0, r0, r9, lsl #16
 8000c4e:	eba4 0408 	sub.w	r4, r4, r8
 8000c52:	fba0 8902 	umull	r8, r9, r0, r2
 8000c56:	454c      	cmp	r4, r9
 8000c58:	46c6      	mov	lr, r8
 8000c5a:	464d      	mov	r5, r9
 8000c5c:	d315      	bcc.n	8000c8a <__udivmoddi4+0x2ae>
 8000c5e:	d012      	beq.n	8000c86 <__udivmoddi4+0x2aa>
 8000c60:	b156      	cbz	r6, 8000c78 <__udivmoddi4+0x29c>
 8000c62:	ebba 030e 	subs.w	r3, sl, lr
 8000c66:	eb64 0405 	sbc.w	r4, r4, r5
 8000c6a:	fa04 f707 	lsl.w	r7, r4, r7
 8000c6e:	40cb      	lsrs	r3, r1
 8000c70:	431f      	orrs	r7, r3
 8000c72:	40cc      	lsrs	r4, r1
 8000c74:	6037      	str	r7, [r6, #0]
 8000c76:	6074      	str	r4, [r6, #4]
 8000c78:	2100      	movs	r1, #0
 8000c7a:	e8bd 87f0 	ldmia.w	sp!, {r4, r5, r6, r7, r8, r9, sl, pc}
 8000c7e:	4618      	mov	r0, r3
 8000c80:	e6f8      	b.n	8000a74 <__udivmoddi4+0x98>
 8000c82:	4690      	mov	r8, r2
 8000c84:	e6e0      	b.n	8000a48 <__udivmoddi4+0x6c>
 8000c86:	45c2      	cmp	sl, r8
 8000c88:	d2ea      	bcs.n	8000c60 <__udivmoddi4+0x284>
 8000c8a:	ebb8 0e02 	subs.w	lr, r8, r2
 8000c8e:	eb69 0503 	sbc.w	r5, r9, r3
 8000c92:	3801      	subs	r0, #1
 8000c94:	e7e4      	b.n	8000c60 <__udivmoddi4+0x284>
 8000c96:	4628      	mov	r0, r5
 8000c98:	e7d7      	b.n	8000c4a <__udivmoddi4+0x26e>
 8000c9a:	4640      	mov	r0, r8
 8000c9c:	e791      	b.n	8000bc2 <__udivmoddi4+0x1e6>
 8000c9e:	4681      	mov	r9, r0
 8000ca0:	e7be      	b.n	8000c20 <__udivmoddi4+0x244>
 8000ca2:	4601      	mov	r1, r0
 8000ca4:	e778      	b.n	8000b98 <__udivmoddi4+0x1bc>
 8000ca6:	3802      	subs	r0, #2
 8000ca8:	443c      	add	r4, r7
 8000caa:	e745      	b.n	8000b38 <__udivmoddi4+0x15c>
 8000cac:	4608      	mov	r0, r1
 8000cae:	e708      	b.n	8000ac2 <__udivmoddi4+0xe6>
 8000cb0:	f1a8 0802 	sub.w	r8, r8, #2
 8000cb4:	443d      	add	r5, r7
 8000cb6:	e72b      	b.n	8000b10 <__udivmoddi4+0x134>

08000cb8 <__aeabi_idiv0>:
 8000cb8:	4770      	bx	lr
 8000cba:	bf00      	nop

08000cbc <HAL_InitTick>:
  *       implementation  in user file.
  * @param TickPriority Tick interrupt priority.
  * @retval HAL status
  */
__weak HAL_StatusTypeDef HAL_InitTick(uint32_t TickPriority)
{
 8000cbc:	b538      	push	{r3, r4, r5, lr}
  /* Configure the SysTick to have interrupt in 1ms time basis*/
  if (HAL_SYSTICK_Config(SystemCoreClock / (1000U / uwTickFreq)) > 0U)
 8000cbe:	4a0e      	ldr	r2, [pc, #56]	; (8000cf8 <HAL_InitTick+0x3c>)
 8000cc0:	4b0e      	ldr	r3, [pc, #56]	; (8000cfc <HAL_InitTick+0x40>)
{
 8000cc2:	4605      	mov	r5, r0
  if (HAL_SYSTICK_Config(SystemCoreClock / (1000U / uwTickFreq)) > 0U)
 8000cc4:	7818      	ldrb	r0, [r3, #0]
 8000cc6:	f44f 737a 	mov.w	r3, #1000	; 0x3e8
 8000cca:	fbb3 f3f0 	udiv	r3, r3, r0
 8000cce:	6810      	ldr	r0, [r2, #0]
 8000cd0:	fbb0 f0f3 	udiv	r0, r0, r3
 8000cd4:	f000 fae4 	bl	80012a0 <HAL_SYSTICK_Config>
 8000cd8:	4604      	mov	r4, r0
 8000cda:	b958      	cbnz	r0, 8000cf4 <HAL_InitTick+0x38>
  {
    return HAL_ERROR;
  }

  /* Configure the SysTick IRQ priority */
  if (TickPriority < (1UL << __NVIC_PRIO_BITS))
 8000cdc:	2d0f      	cmp	r5, #15
 8000cde:	d809      	bhi.n	8000cf4 <HAL_InitTick+0x38>
  {
    HAL_NVIC_SetPriority(SysTick_IRQn, TickPriority, 0U);
 8000ce0:	4602      	mov	r2, r0
 8000ce2:	4629      	mov	r1, r5
 8000ce4:	f04f 30ff 	mov.w	r0, #4294967295
 8000ce8:	f000 fa9a 	bl	8001220 <HAL_NVIC_SetPriority>
    uwTickPrio = TickPriority;
 8000cec:	4b04      	ldr	r3, [pc, #16]	; (8000d00 <HAL_InitTick+0x44>)
 8000cee:	4620      	mov	r0, r4
 8000cf0:	601d      	str	r5, [r3, #0]
 8000cf2:	bd38      	pop	{r3, r4, r5, pc}
    return HAL_ERROR;
 8000cf4:	2001      	movs	r0, #1
    return HAL_ERROR;
  }

  /* Return function status */
  return HAL_OK;
}
 8000cf6:	bd38      	pop	{r3, r4, r5, pc}
 8000cf8:	20000010 	.word	0x20000010
 8000cfc:	20000000 	.word	0x20000000
 8000d00:	20000004 	.word	0x20000004

08000d04 <HAL_Init>:
{
 8000d04:	b508      	push	{r3, lr}
  __HAL_FLASH_INSTRUCTION_CACHE_ENABLE();
 8000d06:	4b0b      	ldr	r3, [pc, #44]	; (8000d34 <HAL_Init+0x30>)
 8000d08:	681a      	ldr	r2, [r3, #0]
 8000d0a:	f442 7200 	orr.w	r2, r2, #512	; 0x200
 8000d0e:	601a      	str	r2, [r3, #0]
  __HAL_FLASH_DATA_CACHE_ENABLE();
 8000d10:	681a      	ldr	r2, [r3, #0]
 8000d12:	f442 6280 	orr.w	r2, r2, #1024	; 0x400
 8000d16:	601a      	str	r2, [r3, #0]
  __HAL_FLASH_PREFETCH_BUFFER_ENABLE();
 8000d18:	681a      	ldr	r2, [r3, #0]
 8000d1a:	f442 7280 	orr.w	r2, r2, #256	; 0x100
 8000d1e:	601a      	str	r2, [r3, #0]
  HAL_NVIC_SetPriorityGrouping(NVIC_PRIORITYGROUP_4);
 8000d20:	2003      	movs	r0, #3
 8000d22:	f000 fa6b 	bl	80011fc <HAL_NVIC_SetPriorityGrouping>
  HAL_InitTick(TICK_INT_PRIORITY);
 8000d26:	2000      	movs	r0, #0
 8000d28:	f7ff ffc8 	bl	8000cbc <HAL_InitTick>
  HAL_MspInit();
 8000d2c:	f001 fcb8 	bl	80026a0 <HAL_MspInit>
}
 8000d30:	2000      	movs	r0, #0
 8000d32:	bd08      	pop	{r3, pc}
 8000d34:	40023c00 	.word	0x40023c00

08000d38 <HAL_IncTick>:
  *      implementations in user file.
  * @retval None
  */
__weak void HAL_IncTick(void)
{
  uwTick += uwTickFreq;
 8000d38:	4a03      	ldr	r2, [pc, #12]	; (8000d48 <HAL_IncTick+0x10>)
 8000d3a:	4b04      	ldr	r3, [pc, #16]	; (8000d4c <HAL_IncTick+0x14>)
 8000d3c:	6811      	ldr	r1, [r2, #0]
 8000d3e:	781b      	ldrb	r3, [r3, #0]
 8000d40:	440b      	add	r3, r1
 8000d42:	6013      	str	r3, [r2, #0]
 8000d44:	4770      	bx	lr
 8000d46:	bf00      	nop
 8000d48:	20000058 	.word	0x20000058
 8000d4c:	20000000 	.word	0x20000000

08000d50 <HAL_GetTick>:
  *       implementations in user file.
  * @retval tick value
  */
__weak uint32_t HAL_GetTick(void)
{
  return uwTick;
 8000d50:	4b01      	ldr	r3, [pc, #4]	; (8000d58 <HAL_GetTick+0x8>)
 8000d52:	6818      	ldr	r0, [r3, #0]
}
 8000d54:	4770      	bx	lr
 8000d56:	bf00      	nop
 8000d58:	20000058 	.word	0x20000058

08000d5c <HAL_Delay>:
  *       implementations in user file.
  * @param Delay specifies the delay time length, in milliseconds.
  * @retval None
  */
__weak void HAL_Delay(uint32_t Delay)
{
 8000d5c:	b538      	push	{r3, r4, r5, lr}
 8000d5e:	4604      	mov	r4, r0
  uint32_t tickstart = HAL_GetTick();
 8000d60:	f7ff fff6 	bl	8000d50 <HAL_GetTick>
  uint32_t wait = Delay;

  /* Add a freq to guarantee minimum wait */
  if (wait < HAL_MAX_DELAY)
 8000d64:	1c63      	adds	r3, r4, #1
  {
    wait += (uint32_t)(uwTickFreq);
 8000d66:	bf1c      	itt	ne
 8000d68:	4b05      	ldrne	r3, [pc, #20]	; (8000d80 <HAL_Delay+0x24>)
 8000d6a:	781b      	ldrbne	r3, [r3, #0]
  uint32_t tickstart = HAL_GetTick();
 8000d6c:	4605      	mov	r5, r0
    wait += (uint32_t)(uwTickFreq);
 8000d6e:	bf18      	it	ne
 8000d70:	18e4      	addne	r4, r4, r3
  }

  while((HAL_GetTick() - tickstart) < wait)
 8000d72:	f7ff ffed 	bl	8000d50 <HAL_GetTick>
 8000d76:	1b40      	subs	r0, r0, r5
 8000d78:	4284      	cmp	r4, r0
 8000d7a:	d8fa      	bhi.n	8000d72 <HAL_Delay+0x16>
  {
  }
}
 8000d7c:	bd38      	pop	{r3, r4, r5, pc}
 8000d7e:	bf00      	nop
 8000d80:	20000000 	.word	0x20000000

08000d84 <HAL_ADC_Init>:
  * @param  hadc pointer to a ADC_HandleTypeDef structure that contains
  *         the configuration information for the specified ADC.  
  * @retval HAL status
  */
HAL_StatusTypeDef HAL_ADC_Init(ADC_HandleTypeDef* hadc)
{
 8000d84:	b510      	push	{r4, lr}
  HAL_StatusTypeDef tmp_hal_status = HAL_OK;
  
  /* Check ADC handle */
  if(hadc == NULL)
 8000d86:	4604      	mov	r4, r0
 8000d88:	2800      	cmp	r0, #0
 8000d8a:	f000 8099 	beq.w	8000ec0 <HAL_ADC_Init+0x13c>
  if(hadc->Init.ExternalTrigConv != ADC_SOFTWARE_START)
  {
    assert_param(IS_ADC_EXT_TRIG_EDGE(hadc->Init.ExternalTrigConvEdge));
  }
  
  if(hadc->State == HAL_ADC_STATE_RESET)
 8000d8e:	6c03      	ldr	r3, [r0, #64]	; 0x40
 8000d90:	b923      	cbnz	r3, 8000d9c <HAL_ADC_Init+0x18>
  {
    /* Initialize ADC error code */
    ADC_CLEAR_ERRORCODE(hadc);
 8000d92:	6443      	str	r3, [r0, #68]	; 0x44
    
    /* Allocate lock resource and initialize it */
    hadc->Lock = HAL_UNLOCKED;
 8000d94:	f880 303c 	strb.w	r3, [r0, #60]	; 0x3c
    
    /* Init the low level hardware */
    HAL_ADC_MspInit(hadc);
 8000d98:	f001 fcb2 	bl	8002700 <HAL_ADC_MspInit>
  }
  
  /* Configuration of ADC parameters if previous preliminary actions are      */ 
  /* correctly completed.                                                     */
  if (HAL_IS_BIT_CLR(hadc->State, HAL_ADC_STATE_ERROR_INTERNAL))
 8000d9c:	6c23      	ldr	r3, [r4, #64]	; 0x40
 8000d9e:	06db      	lsls	r3, r3, #27
 8000da0:	f100 808c 	bmi.w	8000ebc <HAL_ADC_Init+0x138>
  {
    /* Set ADC state */
    ADC_STATE_CLR_SET(hadc->State,
 8000da4:	6c23      	ldr	r3, [r4, #64]	; 0x40
 8000da6:	f423 5388 	bic.w	r3, r3, #4352	; 0x1100
 8000daa:	f023 0302 	bic.w	r3, r3, #2
 8000dae:	f043 0302 	orr.w	r3, r3, #2
 8000db2:	6423      	str	r3, [r4, #64]	; 0x40
  /* (Depending on STM32F4 product, there may be up to 3 ADCs and 1 common */
  /* control register)                                                    */
  tmpADC_Common = ADC_COMMON_REGISTER(hadc);
  
  /* Set the ADC clock prescaler */
  tmpADC_Common->CCR &= ~(ADC_CCR_ADCPRE);
 8000db4:	4b43      	ldr	r3, [pc, #268]	; (8000ec4 <HAL_ADC_Init+0x140>)
 8000db6:	685a      	ldr	r2, [r3, #4]
 8000db8:	f422 3240 	bic.w	r2, r2, #196608	; 0x30000
 8000dbc:	605a      	str	r2, [r3, #4]
  tmpADC_Common->CCR |=  hadc->Init.ClockPrescaler;
 8000dbe:	685a      	ldr	r2, [r3, #4]
 8000dc0:	6861      	ldr	r1, [r4, #4]
 8000dc2:	430a      	orrs	r2, r1
 8000dc4:	605a      	str	r2, [r3, #4]
  
  /* Set ADC scan mode */
  hadc->Instance->CR1 &= ~(ADC_CR1_SCAN);
 8000dc6:	6823      	ldr	r3, [r4, #0]
  hadc->Instance->CR1 |=  ADC_CR1_SCANCONV(hadc->Init.ScanConvMode);
 8000dc8:	6921      	ldr	r1, [r4, #16]
  hadc->Instance->CR1 &= ~(ADC_CR1_SCAN);
 8000dca:	685a      	ldr	r2, [r3, #4]
 8000dcc:	f422 7280 	bic.w	r2, r2, #256	; 0x100
 8000dd0:	605a      	str	r2, [r3, #4]
  hadc->Instance->CR1 |=  ADC_CR1_SCANCONV(hadc->Init.ScanConvMode);
 8000dd2:	685a      	ldr	r2, [r3, #4]
 8000dd4:	ea42 2201 	orr.w	r2, r2, r1, lsl #8
 8000dd8:	605a      	str	r2, [r3, #4]
  
  /* Set ADC resolution */
  hadc->Instance->CR1 &= ~(ADC_CR1_RES);
 8000dda:	685a      	ldr	r2, [r3, #4]
  hadc->Instance->CR1 |=  hadc->Init.Resolution;
 8000ddc:	68a1      	ldr	r1, [r4, #8]
  hadc->Instance->CR1 &= ~(ADC_CR1_RES);
 8000dde:	f022 7240 	bic.w	r2, r2, #50331648	; 0x3000000
 8000de2:	605a      	str	r2, [r3, #4]
  hadc->Instance->CR1 |=  hadc->Init.Resolution;
 8000de4:	685a      	ldr	r2, [r3, #4]
 8000de6:	430a      	orrs	r2, r1
 8000de8:	605a      	str	r2, [r3, #4]
  
  /* Set ADC data alignment */
  hadc->Instance->CR2 &= ~(ADC_CR2_ALIGN);
 8000dea:	689a      	ldr	r2, [r3, #8]
  hadc->Instance->CR2 |= hadc->Init.DataAlign;
 8000dec:	68e1      	ldr	r1, [r4, #12]
  hadc->Instance->CR2 &= ~(ADC_CR2_ALIGN);
 8000dee:	f422 6200 	bic.w	r2, r2, #2048	; 0x800
 8000df2:	609a      	str	r2, [r3, #8]
  hadc->Instance->CR2 |= hadc->Init.DataAlign;
 8000df4:	689a      	ldr	r2, [r3, #8]
 8000df6:	430a      	orrs	r2, r1
 8000df8:	609a      	str	r2, [r3, #8]
  /* Enable external trigger if trigger selection is different of software  */
  /* start.                                                                 */
  /* Note: This configuration keeps the hardware feature of parameter       */
  /*       ExternalTrigConvEdge "trigger edge none" equivalent to           */
  /*       software start.                                                  */
  if(hadc->Init.ExternalTrigConv != ADC_SOFTWARE_START)
 8000dfa:	4933      	ldr	r1, [pc, #204]	; (8000ec8 <HAL_ADC_Init+0x144>)
 8000dfc:	6aa2      	ldr	r2, [r4, #40]	; 0x28
 8000dfe:	428a      	cmp	r2, r1
 8000e00:	d050      	beq.n	8000ea4 <HAL_ADC_Init+0x120>
  {
    /* Select external trigger to start conversion */
    hadc->Instance->CR2 &= ~(ADC_CR2_EXTSEL);
 8000e02:	6899      	ldr	r1, [r3, #8]
 8000e04:	f021 6170 	bic.w	r1, r1, #251658240	; 0xf000000
 8000e08:	6099      	str	r1, [r3, #8]
    hadc->Instance->CR2 |= hadc->Init.ExternalTrigConv;
 8000e0a:	6899      	ldr	r1, [r3, #8]
 8000e0c:	430a      	orrs	r2, r1
 8000e0e:	609a      	str	r2, [r3, #8]
    
    /* Select external trigger polarity */
    hadc->Instance->CR2 &= ~(ADC_CR2_EXTEN);
 8000e10:	689a      	ldr	r2, [r3, #8]
    hadc->Instance->CR2 |= hadc->Init.ExternalTrigConvEdge;
 8000e12:	6ae1      	ldr	r1, [r4, #44]	; 0x2c
    hadc->Instance->CR2 &= ~(ADC_CR2_EXTEN);
 8000e14:	f022 5240 	bic.w	r2, r2, #805306368	; 0x30000000
 8000e18:	609a      	str	r2, [r3, #8]
    hadc->Instance->CR2 |= hadc->Init.ExternalTrigConvEdge;
 8000e1a:	689a      	ldr	r2, [r3, #8]
 8000e1c:	430a      	orrs	r2, r1
  }
  else
  {
    /* Reset the external trigger */
    hadc->Instance->CR2 &= ~(ADC_CR2_EXTSEL);
    hadc->Instance->CR2 &= ~(ADC_CR2_EXTEN);
 8000e1e:	609a      	str	r2, [r3, #8]
  }
  
  /* Enable or disable ADC continuous conversion mode */
  hadc->Instance->CR2 &= ~(ADC_CR2_CONT);
 8000e20:	689a      	ldr	r2, [r3, #8]
  hadc->Instance->CR2 |= ADC_CR2_CONTINUOUS(hadc->Init.ContinuousConvMode);
 8000e22:	69a1      	ldr	r1, [r4, #24]
  hadc->Instance->CR2 &= ~(ADC_CR2_CONT);
 8000e24:	f022 0202 	bic.w	r2, r2, #2
 8000e28:	609a      	str	r2, [r3, #8]
  hadc->Instance->CR2 |= ADC_CR2_CONTINUOUS(hadc->Init.ContinuousConvMode);
 8000e2a:	689a      	ldr	r2, [r3, #8]
 8000e2c:	ea42 0241 	orr.w	r2, r2, r1, lsl #1
 8000e30:	609a      	str	r2, [r3, #8]
  
  if(hadc->Init.DiscontinuousConvMode != DISABLE)
 8000e32:	6a22      	ldr	r2, [r4, #32]
 8000e34:	2a00      	cmp	r2, #0
 8000e36:	d03d      	beq.n	8000eb4 <HAL_ADC_Init+0x130>
  {
    assert_param(IS_ADC_REGULAR_DISC_NUMBER(hadc->Init.NbrOfDiscConversion));
  
    /* Enable the selected ADC regular discontinuous mode */
    hadc->Instance->CR1 |= (uint32_t)ADC_CR1_DISCEN;
 8000e38:	685a      	ldr	r2, [r3, #4]
    
    /* Set the number of channels to be converted in discontinuous mode */
    hadc->Instance->CR1 &= ~(ADC_CR1_DISCNUM);
    hadc->Instance->CR1 |=  ADC_CR1_DISCONTINUOUS(hadc->Init.NbrOfDiscConversion);
 8000e3a:	6a61      	ldr	r1, [r4, #36]	; 0x24
    hadc->Instance->CR1 |= (uint32_t)ADC_CR1_DISCEN;
 8000e3c:	f442 6200 	orr.w	r2, r2, #2048	; 0x800
 8000e40:	605a      	str	r2, [r3, #4]
    hadc->Instance->CR1 &= ~(ADC_CR1_DISCNUM);
 8000e42:	685a      	ldr	r2, [r3, #4]
 8000e44:	f422 4260 	bic.w	r2, r2, #57344	; 0xe000
 8000e48:	605a      	str	r2, [r3, #4]
    hadc->Instance->CR1 |=  ADC_CR1_DISCONTINUOUS(hadc->Init.NbrOfDiscConversion);
 8000e4a:	685a      	ldr	r2, [r3, #4]
 8000e4c:	3901      	subs	r1, #1
 8000e4e:	ea42 3241 	orr.w	r2, r2, r1, lsl #13
  }
  else
  {
    /* Disable the selected ADC regular discontinuous mode */
    hadc->Instance->CR1 &= ~(ADC_CR1_DISCEN);
 8000e52:	605a      	str	r2, [r3, #4]
  }
  
  /* Set ADC number of conversion */
  hadc->Instance->SQR1 &= ~(ADC_SQR1_L);
 8000e54:	6ada      	ldr	r2, [r3, #44]	; 0x2c
  hadc->Instance->SQR1 |=  ADC_SQR1(hadc->Init.NbrOfConversion);
 8000e56:	69e1      	ldr	r1, [r4, #28]
  hadc->Instance->SQR1 &= ~(ADC_SQR1_L);
 8000e58:	f422 0270 	bic.w	r2, r2, #15728640	; 0xf00000
 8000e5c:	62da      	str	r2, [r3, #44]	; 0x2c
  hadc->Instance->SQR1 |=  ADC_SQR1(hadc->Init.NbrOfConversion);
 8000e5e:	6ada      	ldr	r2, [r3, #44]	; 0x2c
 8000e60:	3901      	subs	r1, #1
 8000e62:	ea42 5201 	orr.w	r2, r2, r1, lsl #20
 8000e66:	62da      	str	r2, [r3, #44]	; 0x2c
  
  /* Enable or disable ADC DMA continuous request */
  hadc->Instance->CR2 &= ~(ADC_CR2_DDS);
 8000e68:	689a      	ldr	r2, [r3, #8]
  hadc->Instance->CR2 |= ADC_CR2_DMAContReq(hadc->Init.DMAContinuousRequests);
 8000e6a:	6b21      	ldr	r1, [r4, #48]	; 0x30
  hadc->Instance->CR2 &= ~(ADC_CR2_DDS);
 8000e6c:	f422 7200 	bic.w	r2, r2, #512	; 0x200
 8000e70:	609a      	str	r2, [r3, #8]
  hadc->Instance->CR2 |= ADC_CR2_DMAContReq(hadc->Init.DMAContinuousRequests);
 8000e72:	689a      	ldr	r2, [r3, #8]
 8000e74:	ea42 2241 	orr.w	r2, r2, r1, lsl #9
 8000e78:	609a      	str	r2, [r3, #8]
  
  /* Enable or disable ADC end of conversion selection */
  hadc->Instance->CR2 &= ~(ADC_CR2_EOCS);
 8000e7a:	689a      	ldr	r2, [r3, #8]
  hadc->Instance->CR2 |= ADC_CR2_EOCSelection(hadc->Init.EOCSelection);
 8000e7c:	6961      	ldr	r1, [r4, #20]
  hadc->Instance->CR2 &= ~(ADC_CR2_EOCS);
 8000e7e:	f422 6280 	bic.w	r2, r2, #1024	; 0x400
 8000e82:	609a      	str	r2, [r3, #8]
  hadc->Instance->CR2 |= ADC_CR2_EOCSelection(hadc->Init.EOCSelection);
 8000e84:	689a      	ldr	r2, [r3, #8]
    ADC_CLEAR_ERRORCODE(hadc);
 8000e86:	2000      	movs	r0, #0
  hadc->Instance->CR2 |= ADC_CR2_EOCSelection(hadc->Init.EOCSelection);
 8000e88:	ea42 2281 	orr.w	r2, r2, r1, lsl #10
 8000e8c:	609a      	str	r2, [r3, #8]
    ADC_CLEAR_ERRORCODE(hadc);
 8000e8e:	6460      	str	r0, [r4, #68]	; 0x44
    ADC_STATE_CLR_SET(hadc->State,
 8000e90:	6c23      	ldr	r3, [r4, #64]	; 0x40
 8000e92:	f023 0303 	bic.w	r3, r3, #3
 8000e96:	f043 0301 	orr.w	r3, r3, #1
 8000e9a:	6423      	str	r3, [r4, #64]	; 0x40
  __HAL_UNLOCK(hadc);
 8000e9c:	2300      	movs	r3, #0
 8000e9e:	f884 303c 	strb.w	r3, [r4, #60]	; 0x3c
  return tmp_hal_status;
 8000ea2:	bd10      	pop	{r4, pc}
    hadc->Instance->CR2 &= ~(ADC_CR2_EXTSEL);
 8000ea4:	689a      	ldr	r2, [r3, #8]
 8000ea6:	f022 6270 	bic.w	r2, r2, #251658240	; 0xf000000
 8000eaa:	609a      	str	r2, [r3, #8]
    hadc->Instance->CR2 &= ~(ADC_CR2_EXTEN);
 8000eac:	689a      	ldr	r2, [r3, #8]
 8000eae:	f022 5240 	bic.w	r2, r2, #805306368	; 0x30000000
 8000eb2:	e7b4      	b.n	8000e1e <HAL_ADC_Init+0x9a>
    hadc->Instance->CR1 &= ~(ADC_CR1_DISCEN);
 8000eb4:	685a      	ldr	r2, [r3, #4]
 8000eb6:	f422 6200 	bic.w	r2, r2, #2048	; 0x800
 8000eba:	e7ca      	b.n	8000e52 <HAL_ADC_Init+0xce>
    tmp_hal_status = HAL_ERROR;
 8000ebc:	2001      	movs	r0, #1
 8000ebe:	e7ed      	b.n	8000e9c <HAL_ADC_Init+0x118>
    return HAL_ERROR;
 8000ec0:	2001      	movs	r0, #1
}
 8000ec2:	bd10      	pop	{r4, pc}
 8000ec4:	40012300 	.word	0x40012300
 8000ec8:	0f000001 	.word	0x0f000001

08000ecc <HAL_ADC_Start_IT>:
{
 8000ecc:	b082      	sub	sp, #8
  __IO uint32_t counter = 0U;
 8000ece:	2300      	movs	r3, #0
 8000ed0:	9301      	str	r3, [sp, #4]
  __HAL_LOCK(hadc);
 8000ed2:	f890 303c 	ldrb.w	r3, [r0, #60]	; 0x3c
 8000ed6:	2b01      	cmp	r3, #1
 8000ed8:	d054      	beq.n	8000f84 <HAL_ADC_Start_IT+0xb8>
 8000eda:	2301      	movs	r3, #1
 8000edc:	f880 303c 	strb.w	r3, [r0, #60]	; 0x3c
  if((hadc->Instance->CR2 & ADC_CR2_ADON) != ADC_CR2_ADON)
 8000ee0:	6803      	ldr	r3, [r0, #0]
 8000ee2:	689a      	ldr	r2, [r3, #8]
 8000ee4:	07d1      	lsls	r1, r2, #31
 8000ee6:	d505      	bpl.n	8000ef4 <HAL_ADC_Start_IT+0x28>
  if(HAL_IS_BIT_SET(hadc->Instance->CR2, ADC_CR2_ADON))
 8000ee8:	689a      	ldr	r2, [r3, #8]
 8000eea:	07d2      	lsls	r2, r2, #31
 8000eec:	d414      	bmi.n	8000f18 <HAL_ADC_Start_IT+0x4c>
  return HAL_OK;
 8000eee:	2000      	movs	r0, #0
}
 8000ef0:	b002      	add	sp, #8
 8000ef2:	4770      	bx	lr
    __HAL_ADC_ENABLE(hadc);
 8000ef4:	689a      	ldr	r2, [r3, #8]
    counter = (ADC_STAB_DELAY_US * (SystemCoreClock / 1000000U));
 8000ef6:	4924      	ldr	r1, [pc, #144]	; (8000f88 <HAL_ADC_Start_IT+0xbc>)
    __HAL_ADC_ENABLE(hadc);
 8000ef8:	f042 0201 	orr.w	r2, r2, #1
 8000efc:	609a      	str	r2, [r3, #8]
    counter = (ADC_STAB_DELAY_US * (SystemCoreClock / 1000000U));
 8000efe:	4a23      	ldr	r2, [pc, #140]	; (8000f8c <HAL_ADC_Start_IT+0xc0>)
 8000f00:	6812      	ldr	r2, [r2, #0]
 8000f02:	fbb2 f2f1 	udiv	r2, r2, r1
 8000f06:	eb02 0242 	add.w	r2, r2, r2, lsl #1
      counter--;
 8000f0a:	9201      	str	r2, [sp, #4]
    while(counter != 0U)
 8000f0c:	9a01      	ldr	r2, [sp, #4]
 8000f0e:	2a00      	cmp	r2, #0
 8000f10:	d0ea      	beq.n	8000ee8 <HAL_ADC_Start_IT+0x1c>
      counter--;
 8000f12:	9a01      	ldr	r2, [sp, #4]
 8000f14:	3a01      	subs	r2, #1
 8000f16:	e7f8      	b.n	8000f0a <HAL_ADC_Start_IT+0x3e>
    ADC_STATE_CLR_SET(hadc->State,
 8000f18:	6c02      	ldr	r2, [r0, #64]	; 0x40
 8000f1a:	f422 62e0 	bic.w	r2, r2, #1792	; 0x700
 8000f1e:	f022 0201 	bic.w	r2, r2, #1
 8000f22:	f442 7280 	orr.w	r2, r2, #256	; 0x100
 8000f26:	6402      	str	r2, [r0, #64]	; 0x40
    if (READ_BIT(hadc->Instance->CR1, ADC_CR1_JAUTO) != RESET)
 8000f28:	685a      	ldr	r2, [r3, #4]
 8000f2a:	0551      	lsls	r1, r2, #21
      ADC_STATE_CLR_SET(hadc->State, HAL_ADC_STATE_INJ_EOC, HAL_ADC_STATE_INJ_BUSY);  
 8000f2c:	bf41      	itttt	mi
 8000f2e:	6c02      	ldrmi	r2, [r0, #64]	; 0x40
 8000f30:	f422 5240 	bicmi.w	r2, r2, #12288	; 0x3000
 8000f34:	f442 5280 	orrmi.w	r2, r2, #4096	; 0x1000
 8000f38:	6402      	strmi	r2, [r0, #64]	; 0x40
    if (HAL_IS_BIT_SET(hadc->State, HAL_ADC_STATE_INJ_BUSY))
 8000f3a:	6c02      	ldr	r2, [r0, #64]	; 0x40
 8000f3c:	f412 5280 	ands.w	r2, r2, #4096	; 0x1000
      CLEAR_BIT(hadc->ErrorCode, (HAL_ADC_ERROR_OVR | HAL_ADC_ERROR_DMA));         
 8000f40:	bf1c      	itt	ne
 8000f42:	6c42      	ldrne	r2, [r0, #68]	; 0x44
 8000f44:	f022 0206 	bicne.w	r2, r2, #6
      ADC_CLEAR_ERRORCODE(hadc);
 8000f48:	6442      	str	r2, [r0, #68]	; 0x44
    __HAL_UNLOCK(hadc);
 8000f4a:	2200      	movs	r2, #0
 8000f4c:	f880 203c 	strb.w	r2, [r0, #60]	; 0x3c
    __HAL_ADC_CLEAR_FLAG(hadc, ADC_FLAG_EOC | ADC_FLAG_OVR);
 8000f50:	f06f 0222 	mvn.w	r2, #34	; 0x22
 8000f54:	601a      	str	r2, [r3, #0]
    __HAL_ADC_ENABLE_IT(hadc, (ADC_IT_EOC | ADC_IT_OVR));
 8000f56:	685a      	ldr	r2, [r3, #4]
 8000f58:	f042 6280 	orr.w	r2, r2, #67108864	; 0x4000000
 8000f5c:	f042 0220 	orr.w	r2, r2, #32
 8000f60:	605a      	str	r2, [r3, #4]
    if(HAL_IS_BIT_CLR(tmpADC_Common->CCR, ADC_CCR_MULTI))
 8000f62:	4a0b      	ldr	r2, [pc, #44]	; (8000f90 <HAL_ADC_Start_IT+0xc4>)
 8000f64:	6852      	ldr	r2, [r2, #4]
 8000f66:	06d2      	lsls	r2, r2, #27
 8000f68:	d108      	bne.n	8000f7c <HAL_ADC_Start_IT+0xb0>
      if((hadc->Instance == ADC1) && ((hadc->Instance->CR2 & ADC_CR2_EXTEN) == RESET))
 8000f6a:	6898      	ldr	r0, [r3, #8]
 8000f6c:	f010 5040 	ands.w	r0, r0, #805306368	; 0x30000000
 8000f70:	d1bd      	bne.n	8000eee <HAL_ADC_Start_IT+0x22>
          hadc->Instance->CR2 |= (uint32_t)ADC_CR2_SWSTART;
 8000f72:	689a      	ldr	r2, [r3, #8]
 8000f74:	f042 4280 	orr.w	r2, r2, #1073741824	; 0x40000000
 8000f78:	609a      	str	r2, [r3, #8]
 8000f7a:	e7b9      	b.n	8000ef0 <HAL_ADC_Start_IT+0x24>
      if((hadc->Instance == ADC1) && ((hadc->Instance->CR2 & ADC_CR2_EXTEN) == RESET))
 8000f7c:	4a05      	ldr	r2, [pc, #20]	; (8000f94 <HAL_ADC_Start_IT+0xc8>)
 8000f7e:	4293      	cmp	r3, r2
 8000f80:	d1b5      	bne.n	8000eee <HAL_ADC_Start_IT+0x22>
 8000f82:	e7f2      	b.n	8000f6a <HAL_ADC_Start_IT+0x9e>
  __HAL_LOCK(hadc);
 8000f84:	2002      	movs	r0, #2
 8000f86:	e7b3      	b.n	8000ef0 <HAL_ADC_Start_IT+0x24>
 8000f88:	000f4240 	.word	0x000f4240
 8000f8c:	20000010 	.word	0x20000010
 8000f90:	40012300 	.word	0x40012300
 8000f94:	40012000 	.word	0x40012000

08000f98 <HAL_ADC_GetValue>:
  return hadc->Instance->DR;
 8000f98:	6803      	ldr	r3, [r0, #0]
 8000f9a:	6cd8      	ldr	r0, [r3, #76]	; 0x4c
}
 8000f9c:	4770      	bx	lr

08000f9e <HAL_ADC_LevelOutOfWindowCallback>:
 8000f9e:	4770      	bx	lr

08000fa0 <HAL_ADC_ErrorCallback>:
{
 8000fa0:	4770      	bx	lr

08000fa2 <HAL_ADC_IRQHandler>:
{
 8000fa2:	b538      	push	{r3, r4, r5, lr}
  tmp1 = __HAL_ADC_GET_FLAG(hadc, ADC_FLAG_EOC);
 8000fa4:	6803      	ldr	r3, [r0, #0]
 8000fa6:	6819      	ldr	r1, [r3, #0]
  tmp2 = __HAL_ADC_GET_IT_SOURCE(hadc, ADC_IT_EOC);
 8000fa8:	685a      	ldr	r2, [r3, #4]
  if(tmp1 && tmp2)
 8000faa:	078d      	lsls	r5, r1, #30
{
 8000fac:	4604      	mov	r4, r0
  if(tmp1 && tmp2)
 8000fae:	d52b      	bpl.n	8001008 <HAL_ADC_IRQHandler+0x66>
 8000fb0:	0690      	lsls	r0, r2, #26
 8000fb2:	d529      	bpl.n	8001008 <HAL_ADC_IRQHandler+0x66>
    if (HAL_IS_BIT_CLR(hadc->State, HAL_ADC_STATE_ERROR_INTERNAL))
 8000fb4:	6c22      	ldr	r2, [r4, #64]	; 0x40
 8000fb6:	06d1      	lsls	r1, r2, #27
      SET_BIT(hadc->State, HAL_ADC_STATE_REG_EOC); 
 8000fb8:	bf5e      	ittt	pl
 8000fba:	6c22      	ldrpl	r2, [r4, #64]	; 0x40
 8000fbc:	f442 7200 	orrpl.w	r2, r2, #512	; 0x200
 8000fc0:	6422      	strpl	r2, [r4, #64]	; 0x40
    if(ADC_IS_SOFTWARE_START_REGULAR(hadc)                   &&
 8000fc2:	689a      	ldr	r2, [r3, #8]
 8000fc4:	f012 5f40 	tst.w	r2, #805306368	; 0x30000000
 8000fc8:	d117      	bne.n	8000ffa <HAL_ADC_IRQHandler+0x58>
 8000fca:	69a2      	ldr	r2, [r4, #24]
 8000fcc:	b9aa      	cbnz	r2, 8000ffa <HAL_ADC_IRQHandler+0x58>
       (HAL_IS_BIT_CLR(hadc->Instance->SQR1, ADC_SQR1_L) || 
 8000fce:	6ada      	ldr	r2, [r3, #44]	; 0x2c
       (hadc->Init.ContinuousConvMode == DISABLE)            &&
 8000fd0:	f412 0f70 	tst.w	r2, #15728640	; 0xf00000
 8000fd4:	d002      	beq.n	8000fdc <HAL_ADC_IRQHandler+0x3a>
        HAL_IS_BIT_CLR(hadc->Instance->CR2, ADC_CR2_EOCS)  )   )
 8000fd6:	689a      	ldr	r2, [r3, #8]
       (HAL_IS_BIT_CLR(hadc->Instance->SQR1, ADC_SQR1_L) || 
 8000fd8:	0552      	lsls	r2, r2, #21
 8000fda:	d40e      	bmi.n	8000ffa <HAL_ADC_IRQHandler+0x58>
      __HAL_ADC_DISABLE_IT(hadc, ADC_IT_EOC);
 8000fdc:	685a      	ldr	r2, [r3, #4]
 8000fde:	f022 0220 	bic.w	r2, r2, #32
 8000fe2:	605a      	str	r2, [r3, #4]
      CLEAR_BIT(hadc->State, HAL_ADC_STATE_REG_BUSY);
 8000fe4:	6c23      	ldr	r3, [r4, #64]	; 0x40
 8000fe6:	f423 7380 	bic.w	r3, r3, #256	; 0x100
 8000fea:	6423      	str	r3, [r4, #64]	; 0x40
      if (HAL_IS_BIT_CLR(hadc->State, HAL_ADC_STATE_INJ_BUSY))
 8000fec:	6c23      	ldr	r3, [r4, #64]	; 0x40
 8000fee:	04db      	lsls	r3, r3, #19
        SET_BIT(hadc->State, HAL_ADC_STATE_READY);
 8000ff0:	bf5e      	ittt	pl
 8000ff2:	6c23      	ldrpl	r3, [r4, #64]	; 0x40
 8000ff4:	f043 0301 	orrpl.w	r3, r3, #1
 8000ff8:	6423      	strpl	r3, [r4, #64]	; 0x40
    HAL_ADC_ConvCpltCallback(hadc);
 8000ffa:	4620      	mov	r0, r4
 8000ffc:	f001 f886 	bl	800210c <HAL_ADC_ConvCpltCallback>
    __HAL_ADC_CLEAR_FLAG(hadc, ADC_FLAG_STRT | ADC_FLAG_EOC);
 8001000:	6823      	ldr	r3, [r4, #0]
 8001002:	f06f 0212 	mvn.w	r2, #18
 8001006:	601a      	str	r2, [r3, #0]
  tmp1 = __HAL_ADC_GET_FLAG(hadc, ADC_FLAG_JEOC);
 8001008:	6823      	ldr	r3, [r4, #0]
 800100a:	6819      	ldr	r1, [r3, #0]
  tmp2 = __HAL_ADC_GET_IT_SOURCE(hadc, ADC_IT_JEOC);                               
 800100c:	685a      	ldr	r2, [r3, #4]
  if(tmp1 && tmp2)
 800100e:	074d      	lsls	r5, r1, #29
 8001010:	d532      	bpl.n	8001078 <HAL_ADC_IRQHandler+0xd6>
 8001012:	0610      	lsls	r0, r2, #24
 8001014:	d530      	bpl.n	8001078 <HAL_ADC_IRQHandler+0xd6>
    if (HAL_IS_BIT_CLR(hadc->State, HAL_ADC_STATE_ERROR_INTERNAL))
 8001016:	6c22      	ldr	r2, [r4, #64]	; 0x40
 8001018:	06d1      	lsls	r1, r2, #27
      SET_BIT(hadc->State, HAL_ADC_STATE_INJ_EOC);
 800101a:	bf5e      	ittt	pl
 800101c:	6c22      	ldrpl	r2, [r4, #64]	; 0x40
 800101e:	f442 5200 	orrpl.w	r2, r2, #8192	; 0x2000
 8001022:	6422      	strpl	r2, [r4, #64]	; 0x40
    if(ADC_IS_SOFTWARE_START_INJECTED(hadc)                    &&
 8001024:	689a      	ldr	r2, [r3, #8]
 8001026:	f412 1f40 	tst.w	r2, #3145728	; 0x300000
 800102a:	d11e      	bne.n	800106a <HAL_ADC_IRQHandler+0xc8>
       (HAL_IS_BIT_CLR(hadc->Instance->JSQR, ADC_JSQR_JL)  ||
 800102c:	6b9a      	ldr	r2, [r3, #56]	; 0x38
    if(ADC_IS_SOFTWARE_START_INJECTED(hadc)                    &&
 800102e:	f412 1f40 	tst.w	r2, #3145728	; 0x300000
 8001032:	d002      	beq.n	800103a <HAL_ADC_IRQHandler+0x98>
        HAL_IS_BIT_CLR(hadc->Instance->CR2, ADC_CR2_EOCS)    ) &&
 8001034:	689a      	ldr	r2, [r3, #8]
       (HAL_IS_BIT_CLR(hadc->Instance->JSQR, ADC_JSQR_JL)  ||
 8001036:	0552      	lsls	r2, r2, #21
 8001038:	d417      	bmi.n	800106a <HAL_ADC_IRQHandler+0xc8>
       (HAL_IS_BIT_CLR(hadc->Instance->CR1, ADC_CR1_JAUTO) &&
 800103a:	685a      	ldr	r2, [r3, #4]
        HAL_IS_BIT_CLR(hadc->Instance->CR2, ADC_CR2_EOCS)    ) &&
 800103c:	0555      	lsls	r5, r2, #21
 800103e:	d414      	bmi.n	800106a <HAL_ADC_IRQHandler+0xc8>
        (ADC_IS_SOFTWARE_START_REGULAR(hadc)       &&
 8001040:	689a      	ldr	r2, [r3, #8]
       (HAL_IS_BIT_CLR(hadc->Instance->CR1, ADC_CR1_JAUTO) &&
 8001042:	f012 5f40 	tst.w	r2, #805306368	; 0x30000000
 8001046:	d110      	bne.n	800106a <HAL_ADC_IRQHandler+0xc8>
        (ADC_IS_SOFTWARE_START_REGULAR(hadc)       &&
 8001048:	69a2      	ldr	r2, [r4, #24]
 800104a:	b972      	cbnz	r2, 800106a <HAL_ADC_IRQHandler+0xc8>
      __HAL_ADC_DISABLE_IT(hadc, ADC_IT_JEOC);
 800104c:	685a      	ldr	r2, [r3, #4]
 800104e:	f022 0280 	bic.w	r2, r2, #128	; 0x80
 8001052:	605a      	str	r2, [r3, #4]
      CLEAR_BIT(hadc->State, HAL_ADC_STATE_INJ_BUSY);   
 8001054:	6c23      	ldr	r3, [r4, #64]	; 0x40
 8001056:	f423 5380 	bic.w	r3, r3, #4096	; 0x1000
 800105a:	6423      	str	r3, [r4, #64]	; 0x40
      if (HAL_IS_BIT_CLR(hadc->State, HAL_ADC_STATE_REG_BUSY))
 800105c:	6c23      	ldr	r3, [r4, #64]	; 0x40
 800105e:	05d8      	lsls	r0, r3, #23
        SET_BIT(hadc->State, HAL_ADC_STATE_READY);
 8001060:	bf5e      	ittt	pl
 8001062:	6c23      	ldrpl	r3, [r4, #64]	; 0x40
 8001064:	f043 0301 	orrpl.w	r3, r3, #1
 8001068:	6423      	strpl	r3, [r4, #64]	; 0x40
    HAL_ADCEx_InjectedConvCpltCallback(hadc);
 800106a:	4620      	mov	r0, r4
 800106c:	f000 f8c4 	bl	80011f8 <HAL_ADCEx_InjectedConvCpltCallback>
    __HAL_ADC_CLEAR_FLAG(hadc, (ADC_FLAG_JSTRT | ADC_FLAG_JEOC));
 8001070:	6823      	ldr	r3, [r4, #0]
 8001072:	f06f 020c 	mvn.w	r2, #12
 8001076:	601a      	str	r2, [r3, #0]
  tmp1 = __HAL_ADC_GET_FLAG(hadc, ADC_FLAG_AWD);
 8001078:	6823      	ldr	r3, [r4, #0]
 800107a:	6819      	ldr	r1, [r3, #0]
  tmp2 = __HAL_ADC_GET_IT_SOURCE(hadc, ADC_IT_AWD);                          
 800107c:	685a      	ldr	r2, [r3, #4]
  if(tmp1 && tmp2)
 800107e:	07c9      	lsls	r1, r1, #31
 8001080:	d50f      	bpl.n	80010a2 <HAL_ADC_IRQHandler+0x100>
 8001082:	0655      	lsls	r5, r2, #25
 8001084:	d50d      	bpl.n	80010a2 <HAL_ADC_IRQHandler+0x100>
    if(__HAL_ADC_GET_FLAG(hadc, ADC_FLAG_AWD))
 8001086:	681b      	ldr	r3, [r3, #0]
 8001088:	07d8      	lsls	r0, r3, #31
 800108a:	d50a      	bpl.n	80010a2 <HAL_ADC_IRQHandler+0x100>
      SET_BIT(hadc->State, HAL_ADC_STATE_AWD1);
 800108c:	6c23      	ldr	r3, [r4, #64]	; 0x40
 800108e:	f443 3380 	orr.w	r3, r3, #65536	; 0x10000
 8001092:	6423      	str	r3, [r4, #64]	; 0x40
      HAL_ADC_LevelOutOfWindowCallback(hadc);
 8001094:	4620      	mov	r0, r4
 8001096:	f7ff ff82 	bl	8000f9e <HAL_ADC_LevelOutOfWindowCallback>
      __HAL_ADC_CLEAR_FLAG(hadc, ADC_FLAG_AWD);
 800109a:	6823      	ldr	r3, [r4, #0]
 800109c:	f06f 0201 	mvn.w	r2, #1
 80010a0:	601a      	str	r2, [r3, #0]
  tmp1 = __HAL_ADC_GET_FLAG(hadc, ADC_FLAG_OVR);
 80010a2:	6823      	ldr	r3, [r4, #0]
 80010a4:	6819      	ldr	r1, [r3, #0]
  tmp2 = __HAL_ADC_GET_IT_SOURCE(hadc, ADC_IT_OVR);
 80010a6:	685a      	ldr	r2, [r3, #4]
  if(tmp1 && tmp2)
 80010a8:	0689      	lsls	r1, r1, #26
 80010aa:	d50d      	bpl.n	80010c8 <HAL_ADC_IRQHandler+0x126>
 80010ac:	0152      	lsls	r2, r2, #5
 80010ae:	d50b      	bpl.n	80010c8 <HAL_ADC_IRQHandler+0x126>
    SET_BIT(hadc->ErrorCode, HAL_ADC_ERROR_OVR);
 80010b0:	6c62      	ldr	r2, [r4, #68]	; 0x44
    __HAL_ADC_CLEAR_FLAG(hadc, ADC_FLAG_OVR);
 80010b2:	f06f 0520 	mvn.w	r5, #32
    SET_BIT(hadc->ErrorCode, HAL_ADC_ERROR_OVR);
 80010b6:	f042 0202 	orr.w	r2, r2, #2
 80010ba:	6462      	str	r2, [r4, #68]	; 0x44
    HAL_ADC_ErrorCallback(hadc);
 80010bc:	4620      	mov	r0, r4
    __HAL_ADC_CLEAR_FLAG(hadc, ADC_FLAG_OVR);
 80010be:	601d      	str	r5, [r3, #0]
    HAL_ADC_ErrorCallback(hadc);
 80010c0:	f7ff ff6e 	bl	8000fa0 <HAL_ADC_ErrorCallback>
    __HAL_ADC_CLEAR_FLAG(hadc, ADC_FLAG_OVR);
 80010c4:	6823      	ldr	r3, [r4, #0]
 80010c6:	601d      	str	r5, [r3, #0]
 80010c8:	bd38      	pop	{r3, r4, r5, pc}
	...

080010cc <HAL_ADC_ConfigChannel>:
{
 80010cc:	b5f7      	push	{r0, r1, r2, r4, r5, r6, r7, lr}
  __IO uint32_t counter = 0U;
 80010ce:	2300      	movs	r3, #0
 80010d0:	9301      	str	r3, [sp, #4]
  __HAL_LOCK(hadc);
 80010d2:	f890 303c 	ldrb.w	r3, [r0, #60]	; 0x3c
 80010d6:	2b01      	cmp	r3, #1
 80010d8:	f000 8083 	beq.w	80011e2 <HAL_ADC_ConfigChannel+0x116>
  if (sConfig->Channel > ADC_CHANNEL_9)
 80010dc:	680d      	ldr	r5, [r1, #0]
 80010de:	6804      	ldr	r4, [r0, #0]
 80010e0:	688a      	ldr	r2, [r1, #8]
  __HAL_LOCK(hadc);
 80010e2:	2301      	movs	r3, #1
  if (sConfig->Channel > ADC_CHANNEL_9)
 80010e4:	2d09      	cmp	r5, #9
  __HAL_LOCK(hadc);
 80010e6:	f880 303c 	strb.w	r3, [r0, #60]	; 0x3c
 80010ea:	b2ae      	uxth	r6, r5
  if (sConfig->Channel > ADC_CHANNEL_9)
 80010ec:	d92a      	bls.n	8001144 <HAL_ADC_ConfigChannel+0x78>
    hadc->Instance->SMPR1 &= ~ADC_SMPR1(ADC_SMPR1_SMP10, sConfig->Channel);
 80010ee:	eb06 0346 	add.w	r3, r6, r6, lsl #1
 80010f2:	68e7      	ldr	r7, [r4, #12]
 80010f4:	3b1e      	subs	r3, #30
 80010f6:	f04f 0e07 	mov.w	lr, #7
 80010fa:	fa0e fe03 	lsl.w	lr, lr, r3
 80010fe:	ea27 070e 	bic.w	r7, r7, lr
 8001102:	60e7      	str	r7, [r4, #12]
    hadc->Instance->SMPR1 |= ADC_SMPR1(sConfig->SamplingTime, sConfig->Channel);
 8001104:	68e7      	ldr	r7, [r4, #12]
 8001106:	fa02 f303 	lsl.w	r3, r2, r3
 800110a:	433b      	orrs	r3, r7
 800110c:	60e3      	str	r3, [r4, #12]
  if (sConfig->Rank < 7U)
 800110e:	684a      	ldr	r2, [r1, #4]
 8001110:	2a06      	cmp	r2, #6
 8001112:	ea4f 0382 	mov.w	r3, r2, lsl #2
 8001116:	d825      	bhi.n	8001164 <HAL_ADC_ConfigChannel+0x98>
    hadc->Instance->SQR3 &= ~ADC_SQR3_RK(ADC_SQR3_SQ1, sConfig->Rank);
 8001118:	4413      	add	r3, r2
 800111a:	6b67      	ldr	r7, [r4, #52]	; 0x34
 800111c:	1f59      	subs	r1, r3, #5
 800111e:	231f      	movs	r3, #31
 8001120:	408b      	lsls	r3, r1
 8001122:	ea27 0303 	bic.w	r3, r7, r3
 8001126:	6363      	str	r3, [r4, #52]	; 0x34
    hadc->Instance->SQR3 |= ADC_SQR3_RK(sConfig->Channel, sConfig->Rank);
 8001128:	6b62      	ldr	r2, [r4, #52]	; 0x34
 800112a:	fa06 f101 	lsl.w	r1, r6, r1
 800112e:	4311      	orrs	r1, r2
 8001130:	6361      	str	r1, [r4, #52]	; 0x34
  if ((hadc->Instance == ADC1) && (sConfig->Channel == ADC_CHANNEL_VBAT))
 8001132:	4b2d      	ldr	r3, [pc, #180]	; (80011e8 <HAL_ADC_ConfigChannel+0x11c>)
 8001134:	429c      	cmp	r4, r3
 8001136:	d034      	beq.n	80011a2 <HAL_ADC_ConfigChannel+0xd6>
  __HAL_UNLOCK(hadc);
 8001138:	2300      	movs	r3, #0
 800113a:	f880 303c 	strb.w	r3, [r0, #60]	; 0x3c
  return HAL_OK;
 800113e:	4618      	mov	r0, r3
}
 8001140:	b003      	add	sp, #12
 8001142:	bdf0      	pop	{r4, r5, r6, r7, pc}
    hadc->Instance->SMPR2 &= ~ADC_SMPR2(ADC_SMPR2_SMP0, sConfig->Channel);
 8001144:	6927      	ldr	r7, [r4, #16]
 8001146:	eb05 0345 	add.w	r3, r5, r5, lsl #1
 800114a:	f04f 0e07 	mov.w	lr, #7
 800114e:	fa0e fe03 	lsl.w	lr, lr, r3
 8001152:	ea27 070e 	bic.w	r7, r7, lr
 8001156:	6127      	str	r7, [r4, #16]
    hadc->Instance->SMPR2 |= ADC_SMPR2(sConfig->SamplingTime, sConfig->Channel);
 8001158:	6927      	ldr	r7, [r4, #16]
 800115a:	fa02 f303 	lsl.w	r3, r2, r3
 800115e:	433b      	orrs	r3, r7
 8001160:	6123      	str	r3, [r4, #16]
 8001162:	e7d4      	b.n	800110e <HAL_ADC_ConfigChannel+0x42>
  else if (sConfig->Rank < 13U)
 8001164:	2a0c      	cmp	r2, #12
 8001166:	d80e      	bhi.n	8001186 <HAL_ADC_ConfigChannel+0xba>
    hadc->Instance->SQR2 &= ~ADC_SQR2_RK(ADC_SQR2_SQ7, sConfig->Rank);
 8001168:	4413      	add	r3, r2
 800116a:	6b21      	ldr	r1, [r4, #48]	; 0x30
 800116c:	f1a3 0223 	sub.w	r2, r3, #35	; 0x23
 8001170:	231f      	movs	r3, #31
 8001172:	4093      	lsls	r3, r2
 8001174:	ea21 0303 	bic.w	r3, r1, r3
 8001178:	6323      	str	r3, [r4, #48]	; 0x30
    hadc->Instance->SQR2 |= ADC_SQR2_RK(sConfig->Channel, sConfig->Rank);
 800117a:	6b23      	ldr	r3, [r4, #48]	; 0x30
 800117c:	fa06 f202 	lsl.w	r2, r6, r2
 8001180:	431a      	orrs	r2, r3
 8001182:	6322      	str	r2, [r4, #48]	; 0x30
 8001184:	e7d5      	b.n	8001132 <HAL_ADC_ConfigChannel+0x66>
    hadc->Instance->SQR1 &= ~ADC_SQR1_RK(ADC_SQR1_SQ13, sConfig->Rank);
 8001186:	4413      	add	r3, r2
 8001188:	6ae1      	ldr	r1, [r4, #44]	; 0x2c
 800118a:	3b41      	subs	r3, #65	; 0x41
 800118c:	221f      	movs	r2, #31
 800118e:	409a      	lsls	r2, r3
 8001190:	ea21 0202 	bic.w	r2, r1, r2
 8001194:	62e2      	str	r2, [r4, #44]	; 0x2c
    hadc->Instance->SQR1 |= ADC_SQR1_RK(sConfig->Channel, sConfig->Rank);
 8001196:	6ae2      	ldr	r2, [r4, #44]	; 0x2c
 8001198:	fa06 f103 	lsl.w	r1, r6, r3
 800119c:	4311      	orrs	r1, r2
 800119e:	62e1      	str	r1, [r4, #44]	; 0x2c
 80011a0:	e7c7      	b.n	8001132 <HAL_ADC_ConfigChannel+0x66>
  if ((hadc->Instance == ADC1) && (sConfig->Channel == ADC_CHANNEL_VBAT))
 80011a2:	2d12      	cmp	r5, #18
 80011a4:	d104      	bne.n	80011b0 <HAL_ADC_ConfigChannel+0xe4>
    tmpADC_Common->CCR |= ADC_CCR_VBATE;
 80011a6:	4a11      	ldr	r2, [pc, #68]	; (80011ec <HAL_ADC_ConfigChannel+0x120>)
 80011a8:	6853      	ldr	r3, [r2, #4]
 80011aa:	f443 0380 	orr.w	r3, r3, #4194304	; 0x400000
 80011ae:	6053      	str	r3, [r2, #4]
  if ((hadc->Instance == ADC1) && ((sConfig->Channel == ADC_CHANNEL_TEMPSENSOR) || (sConfig->Channel == ADC_CHANNEL_VREFINT)))
 80011b0:	f1a5 0310 	sub.w	r3, r5, #16
 80011b4:	2b01      	cmp	r3, #1
 80011b6:	d8bf      	bhi.n	8001138 <HAL_ADC_ConfigChannel+0x6c>
    tmpADC_Common->CCR |= ADC_CCR_TSVREFE;
 80011b8:	4a0c      	ldr	r2, [pc, #48]	; (80011ec <HAL_ADC_ConfigChannel+0x120>)
 80011ba:	6853      	ldr	r3, [r2, #4]
    if((sConfig->Channel == ADC_CHANNEL_TEMPSENSOR))
 80011bc:	2d10      	cmp	r5, #16
    tmpADC_Common->CCR |= ADC_CCR_TSVREFE;
 80011be:	f443 0300 	orr.w	r3, r3, #8388608	; 0x800000
 80011c2:	6053      	str	r3, [r2, #4]
    if((sConfig->Channel == ADC_CHANNEL_TEMPSENSOR))
 80011c4:	d1b8      	bne.n	8001138 <HAL_ADC_ConfigChannel+0x6c>
      counter = (ADC_TEMPSENSOR_DELAY_US * (SystemCoreClock / 1000000U));
 80011c6:	4b0a      	ldr	r3, [pc, #40]	; (80011f0 <HAL_ADC_ConfigChannel+0x124>)
 80011c8:	4a0a      	ldr	r2, [pc, #40]	; (80011f4 <HAL_ADC_ConfigChannel+0x128>)
 80011ca:	681b      	ldr	r3, [r3, #0]
 80011cc:	fbb3 f2f2 	udiv	r2, r3, r2
 80011d0:	230a      	movs	r3, #10
 80011d2:	4353      	muls	r3, r2
        counter--;
 80011d4:	9301      	str	r3, [sp, #4]
      while(counter != 0U)
 80011d6:	9b01      	ldr	r3, [sp, #4]
 80011d8:	2b00      	cmp	r3, #0
 80011da:	d0ad      	beq.n	8001138 <HAL_ADC_ConfigChannel+0x6c>
        counter--;
 80011dc:	9b01      	ldr	r3, [sp, #4]
 80011de:	3b01      	subs	r3, #1
 80011e0:	e7f8      	b.n	80011d4 <HAL_ADC_ConfigChannel+0x108>
  __HAL_LOCK(hadc);
 80011e2:	2002      	movs	r0, #2
 80011e4:	e7ac      	b.n	8001140 <HAL_ADC_ConfigChannel+0x74>
 80011e6:	bf00      	nop
 80011e8:	40012000 	.word	0x40012000
 80011ec:	40012300 	.word	0x40012300
 80011f0:	20000010 	.word	0x20000010
 80011f4:	000f4240 	.word	0x000f4240

080011f8 <HAL_ADCEx_InjectedConvCpltCallback>:
  * @param  hadc pointer to a ADC_HandleTypeDef structure that contains
  *         the configuration information for the specified ADC.
  * @retval None
  */
__weak void HAL_ADCEx_InjectedConvCpltCallback(ADC_HandleTypeDef* hadc)
{
 80011f8:	4770      	bx	lr
	...

080011fc <HAL_NVIC_SetPriorityGrouping>:
__STATIC_INLINE void NVIC_SetPriorityGrouping(uint32_t PriorityGroup)
{
  uint32_t reg_value;
  uint32_t PriorityGroupTmp = (PriorityGroup & (uint32_t)0x07UL);             /* only values 0..7 are used          */

  reg_value  =  SCB->AIRCR;                                                   /* read old register configuration    */
 80011fc:	4a07      	ldr	r2, [pc, #28]	; (800121c <HAL_NVIC_SetPriorityGrouping+0x20>)
 80011fe:	68d3      	ldr	r3, [r2, #12]
  reg_value &= ~((uint32_t)(SCB_AIRCR_VECTKEY_Msk | SCB_AIRCR_PRIGROUP_Msk)); /* clear bits to change               */
 8001200:	f423 63e0 	bic.w	r3, r3, #1792	; 0x700
 8001204:	041b      	lsls	r3, r3, #16
 8001206:	0c1b      	lsrs	r3, r3, #16
 8001208:	f043 63bf 	orr.w	r3, r3, #100139008	; 0x5f80000
  reg_value  =  (reg_value                                   |
                ((uint32_t)0x5FAUL << SCB_AIRCR_VECTKEY_Pos) |
                (PriorityGroupTmp << 8U)                      );              /* Insert write key and priorty group */
 800120c:	0200      	lsls	r0, r0, #8
 800120e:	f443 3300 	orr.w	r3, r3, #131072	; 0x20000
 8001212:	f400 60e0 	and.w	r0, r0, #1792	; 0x700
  reg_value  =  (reg_value                                   |
 8001216:	4303      	orrs	r3, r0
  SCB->AIRCR =  reg_value;
 8001218:	60d3      	str	r3, [r2, #12]
 800121a:	4770      	bx	lr
 800121c:	e000ed00 	.word	0xe000ed00

08001220 <HAL_NVIC_SetPriority>:
  \details Reads the priority grouping field from the NVIC Interrupt Controller.
  \return                Priority grouping field (SCB->AIRCR [10:8] PRIGROUP field).
 */
__STATIC_INLINE uint32_t NVIC_GetPriorityGrouping(void)
{
  return ((uint32_t)((SCB->AIRCR & SCB_AIRCR_PRIGROUP_Msk) >> SCB_AIRCR_PRIGROUP_Pos));
 8001220:	4b17      	ldr	r3, [pc, #92]	; (8001280 <HAL_NVIC_SetPriority+0x60>)
  *         This parameter can be a value between 0 and 15
  *         A lower priority value indicates a higher priority.          
  * @retval None
  */
void HAL_NVIC_SetPriority(IRQn_Type IRQn, uint32_t PreemptPriority, uint32_t SubPriority)
{ 
 8001222:	b530      	push	{r4, r5, lr}
 8001224:	68dc      	ldr	r4, [r3, #12]
 8001226:	f3c4 2402 	ubfx	r4, r4, #8, #3
{
  uint32_t PriorityGroupTmp = (PriorityGroup & (uint32_t)0x07UL);   /* only values 0..7 are used          */
  uint32_t PreemptPriorityBits;
  uint32_t SubPriorityBits;

  PreemptPriorityBits = ((7UL - PriorityGroupTmp) > (uint32_t)(__NVIC_PRIO_BITS)) ? (uint32_t)(__NVIC_PRIO_BITS) : (uint32_t)(7UL - PriorityGroupTmp);
 800122a:	f1c4 0307 	rsb	r3, r4, #7
  SubPriorityBits     = ((PriorityGroupTmp + (uint32_t)(__NVIC_PRIO_BITS)) < (uint32_t)7UL) ? (uint32_t)0UL : (uint32_t)((PriorityGroupTmp - 7UL) + (uint32_t)(__NVIC_PRIO_BITS));
 800122e:	1d25      	adds	r5, r4, #4
  PreemptPriorityBits = ((7UL - PriorityGroupTmp) > (uint32_t)(__NVIC_PRIO_BITS)) ? (uint32_t)(__NVIC_PRIO_BITS) : (uint32_t)(7UL - PriorityGroupTmp);
 8001230:	2b04      	cmp	r3, #4
 8001232:	bf28      	it	cs
 8001234:	2304      	movcs	r3, #4
  SubPriorityBits     = ((PriorityGroupTmp + (uint32_t)(__NVIC_PRIO_BITS)) < (uint32_t)7UL) ? (uint32_t)0UL : (uint32_t)((PriorityGroupTmp - 7UL) + (uint32_t)(__NVIC_PRIO_BITS));
 8001236:	2d06      	cmp	r5, #6

  return (
           ((PreemptPriority & (uint32_t)((1UL << (PreemptPriorityBits)) - 1UL)) << SubPriorityBits) |
 8001238:	f04f 0501 	mov.w	r5, #1
 800123c:	fa05 f303 	lsl.w	r3, r5, r3
 8001240:	f103 33ff 	add.w	r3, r3, #4294967295
  SubPriorityBits     = ((PriorityGroupTmp + (uint32_t)(__NVIC_PRIO_BITS)) < (uint32_t)7UL) ? (uint32_t)0UL : (uint32_t)((PriorityGroupTmp - 7UL) + (uint32_t)(__NVIC_PRIO_BITS));
 8001244:	bf8c      	ite	hi
 8001246:	3c03      	subhi	r4, #3
 8001248:	2400      	movls	r4, #0
           ((PreemptPriority & (uint32_t)((1UL << (PreemptPriorityBits)) - 1UL)) << SubPriorityBits) |
 800124a:	4019      	ands	r1, r3
 800124c:	40a1      	lsls	r1, r4
           ((SubPriority     & (uint32_t)((1UL << (SubPriorityBits    )) - 1UL)))
 800124e:	fa05 f404 	lsl.w	r4, r5, r4
 8001252:	3c01      	subs	r4, #1
 8001254:	4022      	ands	r2, r4
  if ((int32_t)(IRQn) < 0)
 8001256:	2800      	cmp	r0, #0
           ((PreemptPriority & (uint32_t)((1UL << (PreemptPriorityBits)) - 1UL)) << SubPriorityBits) |
 8001258:	ea42 0201 	orr.w	r2, r2, r1
 800125c:	ea4f 1202 	mov.w	r2, r2, lsl #4
    NVIC->IP[((uint32_t)(int32_t)IRQn)]               = (uint8_t)((priority << (8U - __NVIC_PRIO_BITS)) & (uint32_t)0xFFUL);
 8001260:	bfaf      	iteee	ge
 8001262:	f100 4060 	addge.w	r0, r0, #3758096384	; 0xe0000000
    SCB->SHP[(((uint32_t)(int32_t)IRQn) & 0xFUL)-4UL] = (uint8_t)((priority << (8U - __NVIC_PRIO_BITS)) & (uint32_t)0xFFUL);
 8001266:	f000 000f 	andlt.w	r0, r0, #15
 800126a:	4b06      	ldrlt	r3, [pc, #24]	; (8001284 <HAL_NVIC_SetPriority+0x64>)
 800126c:	b2d2      	uxtblt	r2, r2
    NVIC->IP[((uint32_t)(int32_t)IRQn)]               = (uint8_t)((priority << (8U - __NVIC_PRIO_BITS)) & (uint32_t)0xFFUL);
 800126e:	bfa5      	ittet	ge
 8001270:	f500 4061 	addge.w	r0, r0, #57600	; 0xe100
 8001274:	b2d2      	uxtbge	r2, r2
    SCB->SHP[(((uint32_t)(int32_t)IRQn) & 0xFUL)-4UL] = (uint8_t)((priority << (8U - __NVIC_PRIO_BITS)) & (uint32_t)0xFFUL);
 8001276:	541a      	strblt	r2, [r3, r0]
    NVIC->IP[((uint32_t)(int32_t)IRQn)]               = (uint8_t)((priority << (8U - __NVIC_PRIO_BITS)) & (uint32_t)0xFFUL);
 8001278:	f880 2300 	strbge.w	r2, [r0, #768]	; 0x300
 800127c:	bd30      	pop	{r4, r5, pc}
 800127e:	bf00      	nop
 8001280:	e000ed00 	.word	0xe000ed00
 8001284:	e000ed14 	.word	0xe000ed14

08001288 <HAL_NVIC_EnableIRQ>:
  NVIC->ISER[(((uint32_t)(int32_t)IRQn) >> 5UL)] = (uint32_t)(1UL << (((uint32_t)(int32_t)IRQn) & 0x1FUL));
 8001288:	0942      	lsrs	r2, r0, #5
 800128a:	2301      	movs	r3, #1
 800128c:	f000 001f 	and.w	r0, r0, #31
 8001290:	fa03 f000 	lsl.w	r0, r3, r0
 8001294:	4b01      	ldr	r3, [pc, #4]	; (800129c <HAL_NVIC_EnableIRQ+0x14>)
 8001296:	f843 0022 	str.w	r0, [r3, r2, lsl #2]
 800129a:	4770      	bx	lr
 800129c:	e000e100 	.word	0xe000e100

080012a0 <HAL_SYSTICK_Config>:
           function <b>SysTick_Config</b> is not included. In this case, the file <b><i>device</i>.h</b>
           must contain a vendor-specific implementation of this function.
 */
__STATIC_INLINE uint32_t SysTick_Config(uint32_t ticks)
{
  if ((ticks - 1UL) > SysTick_LOAD_RELOAD_Msk)
 80012a0:	3801      	subs	r0, #1
 80012a2:	f1b0 7f80 	cmp.w	r0, #16777216	; 0x1000000
 80012a6:	d20a      	bcs.n	80012be <HAL_SYSTICK_Config+0x1e>
  {
    return (1UL);                                                   /* Reload value impossible */
  }

  SysTick->LOAD  = (uint32_t)(ticks - 1UL);                         /* set reload register */
 80012a8:	4b06      	ldr	r3, [pc, #24]	; (80012c4 <HAL_SYSTICK_Config+0x24>)
    SCB->SHP[(((uint32_t)(int32_t)IRQn) & 0xFUL)-4UL] = (uint8_t)((priority << (8U - __NVIC_PRIO_BITS)) & (uint32_t)0xFFUL);
 80012aa:	4a07      	ldr	r2, [pc, #28]	; (80012c8 <HAL_SYSTICK_Config+0x28>)
  SysTick->LOAD  = (uint32_t)(ticks - 1UL);                         /* set reload register */
 80012ac:	6058      	str	r0, [r3, #4]
    SCB->SHP[(((uint32_t)(int32_t)IRQn) & 0xFUL)-4UL] = (uint8_t)((priority << (8U - __NVIC_PRIO_BITS)) & (uint32_t)0xFFUL);
 80012ae:	21f0      	movs	r1, #240	; 0xf0
 80012b0:	f882 1023 	strb.w	r1, [r2, #35]	; 0x23
  NVIC_SetPriority (SysTick_IRQn, (1UL << __NVIC_PRIO_BITS) - 1UL); /* set Priority for Systick Interrupt */
  SysTick->VAL   = 0UL;                                             /* Load the SysTick Counter Value */
 80012b4:	2000      	movs	r0, #0
  SysTick->CTRL  = SysTick_CTRL_CLKSOURCE_Msk |
 80012b6:	2207      	movs	r2, #7
  SysTick->VAL   = 0UL;                                             /* Load the SysTick Counter Value */
 80012b8:	6098      	str	r0, [r3, #8]
  SysTick->CTRL  = SysTick_CTRL_CLKSOURCE_Msk |
 80012ba:	601a      	str	r2, [r3, #0]
 80012bc:	4770      	bx	lr
    return (1UL);                                                   /* Reload value impossible */
 80012be:	2001      	movs	r0, #1
  *                  - 1  Function failed.
  */
uint32_t HAL_SYSTICK_Config(uint32_t TicksNumb)
{
   return SysTick_Config(TicksNumb);
}
 80012c0:	4770      	bx	lr
 80012c2:	bf00      	nop
 80012c4:	e000e010 	.word	0xe000e010
 80012c8:	e000ed00 	.word	0xe000ed00

080012cc <HAL_SYSTICK_CLKSourceConfig>:
  *             @arg SYSTICK_CLKSOURCE_HCLK_DIV8: AHB clock divided by 8 selected as SysTick clock source.
  *             @arg SYSTICK_CLKSOURCE_HCLK: AHB clock selected as SysTick clock source.
  * @retval None
  */
void HAL_SYSTICK_CLKSourceConfig(uint32_t CLKSource)
{
 80012cc:	4b04      	ldr	r3, [pc, #16]	; (80012e0 <HAL_SYSTICK_CLKSourceConfig+0x14>)
  /* Check the parameters */
  assert_param(IS_SYSTICK_CLK_SOURCE(CLKSource));
  if (CLKSource == SYSTICK_CLKSOURCE_HCLK)
  {
    SysTick->CTRL |= SYSTICK_CLKSOURCE_HCLK;
 80012ce:	681a      	ldr	r2, [r3, #0]
  if (CLKSource == SYSTICK_CLKSOURCE_HCLK)
 80012d0:	2804      	cmp	r0, #4
    SysTick->CTRL |= SYSTICK_CLKSOURCE_HCLK;
 80012d2:	bf0c      	ite	eq
 80012d4:	f042 0204 	orreq.w	r2, r2, #4
  }
  else
  {
    SysTick->CTRL &= ~SYSTICK_CLKSOURCE_HCLK;
 80012d8:	f022 0204 	bicne.w	r2, r2, #4
 80012dc:	601a      	str	r2, [r3, #0]
 80012de:	4770      	bx	lr
 80012e0:	e000e010 	.word	0xe000e010

080012e4 <HAL_SYSTICK_Callback>:
/**
  * @brief  SYSTICK callback.
  * @retval None
  */
__weak void HAL_SYSTICK_Callback(void)
{
 80012e4:	4770      	bx	lr

080012e6 <HAL_SYSTICK_IRQHandler>:
{
 80012e6:	b508      	push	{r3, lr}
  HAL_SYSTICK_Callback();
 80012e8:	f7ff fffc 	bl	80012e4 <HAL_SYSTICK_Callback>
 80012ec:	bd08      	pop	{r3, pc}
	...

080012f0 <HAL_GPIO_Init>:
  * @param  GPIO_Init pointer to a GPIO_InitTypeDef structure that contains
  *         the configuration information for the specified GPIO peripheral.
  * @retval None
  */
void HAL_GPIO_Init(GPIO_TypeDef  *GPIOx, GPIO_InitTypeDef *GPIO_Init)
{
 80012f0:	e92d 4ff0 	stmdb	sp!, {r4, r5, r6, r7, r8, r9, sl, fp, lr}
 80012f4:	b085      	sub	sp, #20
  for(position = 0U; position < GPIO_NUMBER; position++)
  {
    /* Get the IO position */
    ioposition = 0x01U << position;
    /* Get the current IO position */
    iocurrent = (uint32_t)(GPIO_Init->Pin) & ioposition;
 80012f6:	680b      	ldr	r3, [r1, #0]
      /*--------------------- EXTI Mode Configuration ------------------------*/
      /* Configure the External Interrupt or event for the current IO */
      if((GPIO_Init->Mode & EXTI_MODE) == EXTI_MODE)
      {
        /* Enable SYSCFG Clock */
        __HAL_RCC_SYSCFG_CLK_ENABLE();
 80012f8:	f8df 819c 	ldr.w	r8, [pc, #412]	; 8001498 <HAL_GPIO_Init+0x1a8>
        temp &= ~(0x0FU << (4U * (position & 0x03U)));
        temp |= ((uint32_t)(GPIO_GET_INDEX(GPIOx)) << (4U * (position & 0x03U)));
        SYSCFG->EXTICR[position >> 2U] = temp;

        /* Clear EXTI line configuration */
        temp = EXTI->IMR;
 80012fc:	4a64      	ldr	r2, [pc, #400]	; (8001490 <HAL_GPIO_Init+0x1a0>)
    iocurrent = (uint32_t)(GPIO_Init->Pin) & ioposition;
 80012fe:	9301      	str	r3, [sp, #4]
    ioposition = 0x01U << position;
 8001300:	f04f 0901 	mov.w	r9, #1
  for(position = 0U; position < GPIO_NUMBER; position++)
 8001304:	2300      	movs	r3, #0
    iocurrent = (uint32_t)(GPIO_Init->Pin) & ioposition;
 8001306:	9c01      	ldr	r4, [sp, #4]
    ioposition = 0x01U << position;
 8001308:	fa09 f703 	lsl.w	r7, r9, r3
    iocurrent = (uint32_t)(GPIO_Init->Pin) & ioposition;
 800130c:	ea07 0604 	and.w	r6, r7, r4
    if(iocurrent == ioposition)
 8001310:	42b7      	cmp	r7, r6
 8001312:	f040 80ad 	bne.w	8001470 <HAL_GPIO_Init+0x180>
      if((GPIO_Init->Mode == GPIO_MODE_AF_PP) || (GPIO_Init->Mode == GPIO_MODE_AF_OD))
 8001316:	684c      	ldr	r4, [r1, #4]
 8001318:	f024 0a10 	bic.w	sl, r4, #16
 800131c:	f1ba 0f02 	cmp.w	sl, #2
 8001320:	d116      	bne.n	8001350 <HAL_GPIO_Init+0x60>
        temp = GPIOx->AFR[position >> 3U];
 8001322:	ea4f 0cd3 	mov.w	ip, r3, lsr #3
 8001326:	eb00 0c8c 	add.w	ip, r0, ip, lsl #2
        temp &= ~(0xFU << ((uint32_t)(position & 0x07U) * 4U)) ;
 800132a:	f003 0b07 	and.w	fp, r3, #7
        temp = GPIOx->AFR[position >> 3U];
 800132e:	f8dc 5020 	ldr.w	r5, [ip, #32]
        temp &= ~(0xFU << ((uint32_t)(position & 0x07U) * 4U)) ;
 8001332:	ea4f 0b8b 	mov.w	fp, fp, lsl #2
 8001336:	f04f 0e0f 	mov.w	lr, #15
 800133a:	fa0e fe0b 	lsl.w	lr, lr, fp
 800133e:	ea25 0e0e 	bic.w	lr, r5, lr
        temp |= ((uint32_t)(GPIO_Init->Alternate) << (((uint32_t)position & 0x07U) * 4U));
 8001342:	690d      	ldr	r5, [r1, #16]
 8001344:	fa05 f50b 	lsl.w	r5, r5, fp
 8001348:	ea45 050e 	orr.w	r5, r5, lr
        GPIOx->AFR[position >> 3U] = temp;
 800134c:	f8cc 5020 	str.w	r5, [ip, #32]
 8001350:	ea4f 0c43 	mov.w	ip, r3, lsl #1
      temp &= ~(GPIO_MODER_MODER0 << (position * 2U));
 8001354:	2503      	movs	r5, #3
      temp = GPIOx->MODER;
 8001356:	f8d0 b000 	ldr.w	fp, [r0]
      temp &= ~(GPIO_MODER_MODER0 << (position * 2U));
 800135a:	fa05 f50c 	lsl.w	r5, r5, ip
 800135e:	43ed      	mvns	r5, r5
      temp |= ((GPIO_Init->Mode & GPIO_MODE) << (position * 2U));
 8001360:	f004 0e03 	and.w	lr, r4, #3
      temp &= ~(GPIO_MODER_MODER0 << (position * 2U));
 8001364:	ea0b 0b05 	and.w	fp, fp, r5
      temp |= ((GPIO_Init->Mode & GPIO_MODE) << (position * 2U));
 8001368:	fa0e fe0c 	lsl.w	lr, lr, ip
      if((GPIO_Init->Mode == GPIO_MODE_OUTPUT_PP) || (GPIO_Init->Mode == GPIO_MODE_AF_PP) ||
 800136c:	f10a 3aff 	add.w	sl, sl, #4294967295
      temp |= ((GPIO_Init->Mode & GPIO_MODE) << (position * 2U));
 8001370:	ea4e 0e0b 	orr.w	lr, lr, fp
      if((GPIO_Init->Mode == GPIO_MODE_OUTPUT_PP) || (GPIO_Init->Mode == GPIO_MODE_AF_PP) ||
 8001374:	f1ba 0f01 	cmp.w	sl, #1
      temp &= ~(GPIO_MODER_MODER0 << (position * 2U));
 8001378:	9500      	str	r5, [sp, #0]
      GPIOx->MODER = temp;
 800137a:	f8c0 e000 	str.w	lr, [r0]
      if((GPIO_Init->Mode == GPIO_MODE_OUTPUT_PP) || (GPIO_Init->Mode == GPIO_MODE_AF_PP) ||
 800137e:	d815      	bhi.n	80013ac <HAL_GPIO_Init+0xbc>
        temp = GPIOx->OSPEEDR; 
 8001380:	f8d0 e008 	ldr.w	lr, [r0, #8]
        temp &= ~(GPIO_OSPEEDER_OSPEEDR0 << (position * 2U));
 8001384:	ea05 0e0e 	and.w	lr, r5, lr
        temp |= (GPIO_Init->Speed << (position * 2U));
 8001388:	68cd      	ldr	r5, [r1, #12]
 800138a:	fa05 fa0c 	lsl.w	sl, r5, ip
 800138e:	ea4a 0e0e 	orr.w	lr, sl, lr
        GPIOx->OSPEEDR = temp;
 8001392:	f8c0 e008 	str.w	lr, [r0, #8]
        temp = GPIOx->OTYPER;
 8001396:	f8d0 e004 	ldr.w	lr, [r0, #4]
        temp &= ~(GPIO_OTYPER_OT_0 << position) ;
 800139a:	ea2e 0707 	bic.w	r7, lr, r7
        temp |= (((GPIO_Init->Mode & GPIO_OUTPUT_TYPE) >> 4U) << position);
 800139e:	f3c4 1e00 	ubfx	lr, r4, #4, #1
 80013a2:	fa0e fe03 	lsl.w	lr, lr, r3
 80013a6:	ea4e 0707 	orr.w	r7, lr, r7
        GPIOx->OTYPER = temp;
 80013aa:	6047      	str	r7, [r0, #4]
      temp = GPIOx->PUPDR;
 80013ac:	68c7      	ldr	r7, [r0, #12]
      temp &= ~(GPIO_PUPDR_PUPDR0 << (position * 2U));
 80013ae:	9d00      	ldr	r5, [sp, #0]
 80013b0:	403d      	ands	r5, r7
      temp |= ((GPIO_Init->Pull) << (position * 2U));
 80013b2:	688f      	ldr	r7, [r1, #8]
 80013b4:	fa07 f70c 	lsl.w	r7, r7, ip
 80013b8:	433d      	orrs	r5, r7
      GPIOx->PUPDR = temp;
 80013ba:	60c5      	str	r5, [r0, #12]
      if((GPIO_Init->Mode & EXTI_MODE) == EXTI_MODE)
 80013bc:	00e5      	lsls	r5, r4, #3
 80013be:	d557      	bpl.n	8001470 <HAL_GPIO_Init+0x180>
        __HAL_RCC_SYSCFG_CLK_ENABLE();
 80013c0:	f04f 0b00 	mov.w	fp, #0
 80013c4:	f8cd b00c 	str.w	fp, [sp, #12]
 80013c8:	f8d8 7044 	ldr.w	r7, [r8, #68]	; 0x44
        temp |= ((uint32_t)(GPIO_GET_INDEX(GPIOx)) << (4U * (position & 0x03U)));
 80013cc:	4d31      	ldr	r5, [pc, #196]	; (8001494 <HAL_GPIO_Init+0x1a4>)
        __HAL_RCC_SYSCFG_CLK_ENABLE();
 80013ce:	f447 4780 	orr.w	r7, r7, #16384	; 0x4000
 80013d2:	f8c8 7044 	str.w	r7, [r8, #68]	; 0x44
 80013d6:	f8d8 7044 	ldr.w	r7, [r8, #68]	; 0x44
 80013da:	f407 4780 	and.w	r7, r7, #16384	; 0x4000
 80013de:	9703      	str	r7, [sp, #12]
 80013e0:	9f03      	ldr	r7, [sp, #12]
 80013e2:	f023 0703 	bic.w	r7, r3, #3
 80013e6:	f107 4780 	add.w	r7, r7, #1073741824	; 0x40000000
 80013ea:	f507 379c 	add.w	r7, r7, #79872	; 0x13800
        temp &= ~(0x0FU << (4U * (position & 0x03U)));
 80013ee:	f003 0c03 	and.w	ip, r3, #3
        temp = SYSCFG->EXTICR[position >> 2U];
 80013f2:	f8d7 a008 	ldr.w	sl, [r7, #8]
        temp &= ~(0x0FU << (4U * (position & 0x03U)));
 80013f6:	ea4f 0c8c 	mov.w	ip, ip, lsl #2
 80013fa:	f04f 0e0f 	mov.w	lr, #15
 80013fe:	fa0e fe0c 	lsl.w	lr, lr, ip
        temp |= ((uint32_t)(GPIO_GET_INDEX(GPIOx)) << (4U * (position & 0x03U)));
 8001402:	42a8      	cmp	r0, r5
        temp &= ~(0x0FU << (4U * (position & 0x03U)));
 8001404:	ea2a 0e0e 	bic.w	lr, sl, lr
        temp |= ((uint32_t)(GPIO_GET_INDEX(GPIOx)) << (4U * (position & 0x03U)));
 8001408:	d039      	beq.n	800147e <HAL_GPIO_Init+0x18e>
 800140a:	f505 6580 	add.w	r5, r5, #1024	; 0x400
 800140e:	42a8      	cmp	r0, r5
 8001410:	d037      	beq.n	8001482 <HAL_GPIO_Init+0x192>
 8001412:	f505 6580 	add.w	r5, r5, #1024	; 0x400
 8001416:	42a8      	cmp	r0, r5
 8001418:	d035      	beq.n	8001486 <HAL_GPIO_Init+0x196>
 800141a:	f505 6580 	add.w	r5, r5, #1024	; 0x400
 800141e:	42a8      	cmp	r0, r5
 8001420:	d033      	beq.n	800148a <HAL_GPIO_Init+0x19a>
 8001422:	f505 6580 	add.w	r5, r5, #1024	; 0x400
 8001426:	42a8      	cmp	r0, r5
 8001428:	bf14      	ite	ne
 800142a:	2507      	movne	r5, #7
 800142c:	2504      	moveq	r5, #4
 800142e:	fa05 f50c 	lsl.w	r5, r5, ip
 8001432:	ea45 050e 	orr.w	r5, r5, lr
        SYSCFG->EXTICR[position >> 2U] = temp;
 8001436:	60bd      	str	r5, [r7, #8]
        temp = EXTI->IMR;
 8001438:	6815      	ldr	r5, [r2, #0]
        temp &= ~((uint32_t)iocurrent);
 800143a:	43f7      	mvns	r7, r6
        if((GPIO_Init->Mode & GPIO_MODE_IT) == GPIO_MODE_IT)
 800143c:	f414 3f80 	tst.w	r4, #65536	; 0x10000
        temp &= ~((uint32_t)iocurrent);
 8001440:	bf0c      	ite	eq
 8001442:	403d      	andeq	r5, r7
        {
          temp |= iocurrent;
 8001444:	4335      	orrne	r5, r6
        }
        EXTI->IMR = temp;
 8001446:	6015      	str	r5, [r2, #0]

        temp = EXTI->EMR;
 8001448:	6855      	ldr	r5, [r2, #4]
        temp &= ~((uint32_t)iocurrent);
        if((GPIO_Init->Mode & GPIO_MODE_EVT) == GPIO_MODE_EVT)
 800144a:	f414 3f00 	tst.w	r4, #131072	; 0x20000
        temp &= ~((uint32_t)iocurrent);
 800144e:	bf0c      	ite	eq
 8001450:	403d      	andeq	r5, r7
        {
          temp |= iocurrent;
 8001452:	4335      	orrne	r5, r6
        }
        EXTI->EMR = temp;
 8001454:	6055      	str	r5, [r2, #4]

        /* Clear Rising Falling edge configuration */
        temp = EXTI->RTSR;
 8001456:	6895      	ldr	r5, [r2, #8]
        temp &= ~((uint32_t)iocurrent);
        if((GPIO_Init->Mode & RISING_EDGE) == RISING_EDGE)
 8001458:	f414 1f80 	tst.w	r4, #1048576	; 0x100000
        temp &= ~((uint32_t)iocurrent);
 800145c:	bf0c      	ite	eq
 800145e:	403d      	andeq	r5, r7
        {
          temp |= iocurrent;
 8001460:	4335      	orrne	r5, r6
        }
        EXTI->RTSR = temp;
 8001462:	6095      	str	r5, [r2, #8]

        temp = EXTI->FTSR;
 8001464:	68d5      	ldr	r5, [r2, #12]
        temp &= ~((uint32_t)iocurrent);
        if((GPIO_Init->Mode & FALLING_EDGE) == FALLING_EDGE)
 8001466:	02a4      	lsls	r4, r4, #10
        temp &= ~((uint32_t)iocurrent);
 8001468:	bf54      	ite	pl
 800146a:	403d      	andpl	r5, r7
        {
          temp |= iocurrent;
 800146c:	4335      	orrmi	r5, r6
        }
        EXTI->FTSR = temp;
 800146e:	60d5      	str	r5, [r2, #12]
  for(position = 0U; position < GPIO_NUMBER; position++)
 8001470:	3301      	adds	r3, #1
 8001472:	2b10      	cmp	r3, #16
 8001474:	f47f af47 	bne.w	8001306 <HAL_GPIO_Init+0x16>
      }
    }
  }
}
 8001478:	b005      	add	sp, #20
 800147a:	e8bd 8ff0 	ldmia.w	sp!, {r4, r5, r6, r7, r8, r9, sl, fp, pc}
        temp |= ((uint32_t)(GPIO_GET_INDEX(GPIOx)) << (4U * (position & 0x03U)));
 800147e:	465d      	mov	r5, fp
 8001480:	e7d5      	b.n	800142e <HAL_GPIO_Init+0x13e>
 8001482:	2501      	movs	r5, #1
 8001484:	e7d3      	b.n	800142e <HAL_GPIO_Init+0x13e>
 8001486:	2502      	movs	r5, #2
 8001488:	e7d1      	b.n	800142e <HAL_GPIO_Init+0x13e>
 800148a:	2503      	movs	r5, #3
 800148c:	e7cf      	b.n	800142e <HAL_GPIO_Init+0x13e>
 800148e:	bf00      	nop
 8001490:	40013c00 	.word	0x40013c00
 8001494:	40020000 	.word	0x40020000
 8001498:	40023800 	.word	0x40023800

0800149c <HAL_GPIO_ReadPin>:
  GPIO_PinState bitstatus;

  /* Check the parameters */
  assert_param(IS_GPIO_PIN(GPIO_Pin));

  if((GPIOx->IDR & GPIO_Pin) != (uint32_t)GPIO_PIN_RESET)
 800149c:	6903      	ldr	r3, [r0, #16]
 800149e:	4219      	tst	r1, r3
  else
  {
    bitstatus = GPIO_PIN_RESET;
  }
  return bitstatus;
}
 80014a0:	bf14      	ite	ne
 80014a2:	2001      	movne	r0, #1
 80014a4:	2000      	moveq	r0, #0
 80014a6:	4770      	bx	lr

080014a8 <HAL_GPIO_WritePin>:
{
  /* Check the parameters */
  assert_param(IS_GPIO_PIN(GPIO_Pin));
  assert_param(IS_GPIO_PIN_ACTION(PinState));

  if(PinState != GPIO_PIN_RESET)
 80014a8:	b10a      	cbz	r2, 80014ae <HAL_GPIO_WritePin+0x6>
  {
    GPIOx->BSRR = GPIO_Pin;
  }
  else
  {
    GPIOx->BSRR = (uint32_t)GPIO_Pin << 16U;
 80014aa:	6181      	str	r1, [r0, #24]
 80014ac:	4770      	bx	lr
 80014ae:	0409      	lsls	r1, r1, #16
 80014b0:	e7fb      	b.n	80014aa <HAL_GPIO_WritePin+0x2>
	...

080014b4 <HAL_RCC_OscConfig>:
  *         supported by this API. User should request a transition to HSE Off
  *         first and then HSE On or HSE Bypass.
  * @retval HAL status
  */
__weak HAL_StatusTypeDef HAL_RCC_OscConfig(RCC_OscInitTypeDef  *RCC_OscInitStruct)
{
 80014b4:	e92d 41f3 	stmdb	sp!, {r0, r1, r4, r5, r6, r7, r8, lr}
  uint32_t tickstart;

  /* Check Null pointer */
  if(RCC_OscInitStruct == NULL)
 80014b8:	4604      	mov	r4, r0
 80014ba:	b918      	cbnz	r0, 80014c4 <HAL_RCC_OscConfig+0x10>
  {
    return HAL_ERROR;
 80014bc:	2001      	movs	r0, #1
    {
      return HAL_ERROR;
    }
  }
  return HAL_OK;
}
 80014be:	b002      	add	sp, #8
 80014c0:	e8bd 81f0 	ldmia.w	sp!, {r4, r5, r6, r7, r8, pc}
  if(((RCC_OscInitStruct->OscillatorType) & RCC_OSCILLATORTYPE_HSE) == RCC_OSCILLATORTYPE_HSE)
 80014c4:	6803      	ldr	r3, [r0, #0]
 80014c6:	07dd      	lsls	r5, r3, #31
 80014c8:	d410      	bmi.n	80014ec <HAL_RCC_OscConfig+0x38>
  if(((RCC_OscInitStruct->OscillatorType) & RCC_OSCILLATORTYPE_HSI) == RCC_OSCILLATORTYPE_HSI)
 80014ca:	6823      	ldr	r3, [r4, #0]
 80014cc:	0798      	lsls	r0, r3, #30
 80014ce:	d458      	bmi.n	8001582 <HAL_RCC_OscConfig+0xce>
  if(((RCC_OscInitStruct->OscillatorType) & RCC_OSCILLATORTYPE_LSI) == RCC_OSCILLATORTYPE_LSI)
 80014d0:	6823      	ldr	r3, [r4, #0]
 80014d2:	071a      	lsls	r2, r3, #28
 80014d4:	f100 809a 	bmi.w	800160c <HAL_RCC_OscConfig+0x158>
  if(((RCC_OscInitStruct->OscillatorType) & RCC_OSCILLATORTYPE_LSE) == RCC_OSCILLATORTYPE_LSE)
 80014d8:	6823      	ldr	r3, [r4, #0]
 80014da:	075b      	lsls	r3, r3, #29
 80014dc:	f100 80b8 	bmi.w	8001650 <HAL_RCC_OscConfig+0x19c>
  if ((RCC_OscInitStruct->PLL.PLLState) != RCC_PLL_NONE)
 80014e0:	69a2      	ldr	r2, [r4, #24]
 80014e2:	2a00      	cmp	r2, #0
 80014e4:	f040 8119 	bne.w	800171a <HAL_RCC_OscConfig+0x266>
  return HAL_OK;
 80014e8:	2000      	movs	r0, #0
 80014ea:	e7e8      	b.n	80014be <HAL_RCC_OscConfig+0xa>
    if((__HAL_RCC_GET_SYSCLK_SOURCE() == RCC_CFGR_SWS_HSE) ||\
 80014ec:	4ba6      	ldr	r3, [pc, #664]	; (8001788 <HAL_RCC_OscConfig+0x2d4>)
 80014ee:	689a      	ldr	r2, [r3, #8]
 80014f0:	f002 020c 	and.w	r2, r2, #12
 80014f4:	2a04      	cmp	r2, #4
 80014f6:	d007      	beq.n	8001508 <HAL_RCC_OscConfig+0x54>
      ((__HAL_RCC_GET_SYSCLK_SOURCE() == RCC_CFGR_SWS_PLL) && ((RCC->PLLCFGR & RCC_PLLCFGR_PLLSRC) == RCC_PLLCFGR_PLLSRC_HSE)))
 80014f8:	689a      	ldr	r2, [r3, #8]
 80014fa:	f002 020c 	and.w	r2, r2, #12
    if((__HAL_RCC_GET_SYSCLK_SOURCE() == RCC_CFGR_SWS_HSE) ||\
 80014fe:	2a08      	cmp	r2, #8
 8001500:	d10a      	bne.n	8001518 <HAL_RCC_OscConfig+0x64>
      ((__HAL_RCC_GET_SYSCLK_SOURCE() == RCC_CFGR_SWS_PLL) && ((RCC->PLLCFGR & RCC_PLLCFGR_PLLSRC) == RCC_PLLCFGR_PLLSRC_HSE)))
 8001502:	685b      	ldr	r3, [r3, #4]
 8001504:	0259      	lsls	r1, r3, #9
 8001506:	d507      	bpl.n	8001518 <HAL_RCC_OscConfig+0x64>
      if((__HAL_RCC_GET_FLAG(RCC_FLAG_HSERDY) != RESET) && (RCC_OscInitStruct->HSEState == RCC_HSE_OFF))
 8001508:	4b9f      	ldr	r3, [pc, #636]	; (8001788 <HAL_RCC_OscConfig+0x2d4>)
 800150a:	681b      	ldr	r3, [r3, #0]
 800150c:	039a      	lsls	r2, r3, #14
 800150e:	d5dc      	bpl.n	80014ca <HAL_RCC_OscConfig+0x16>
 8001510:	6863      	ldr	r3, [r4, #4]
 8001512:	2b00      	cmp	r3, #0
 8001514:	d1d9      	bne.n	80014ca <HAL_RCC_OscConfig+0x16>
 8001516:	e7d1      	b.n	80014bc <HAL_RCC_OscConfig+0x8>
      __HAL_RCC_HSE_CONFIG(RCC_OscInitStruct->HSEState);
 8001518:	6863      	ldr	r3, [r4, #4]
 800151a:	4d9b      	ldr	r5, [pc, #620]	; (8001788 <HAL_RCC_OscConfig+0x2d4>)
 800151c:	f5b3 3f80 	cmp.w	r3, #65536	; 0x10000
 8001520:	d111      	bne.n	8001546 <HAL_RCC_OscConfig+0x92>
 8001522:	682b      	ldr	r3, [r5, #0]
 8001524:	f443 3380 	orr.w	r3, r3, #65536	; 0x10000
 8001528:	602b      	str	r3, [r5, #0]
        tickstart = HAL_GetTick();
 800152a:	f7ff fc11 	bl	8000d50 <HAL_GetTick>
        while(__HAL_RCC_GET_FLAG(RCC_FLAG_HSERDY) == RESET)
 800152e:	4d96      	ldr	r5, [pc, #600]	; (8001788 <HAL_RCC_OscConfig+0x2d4>)
        tickstart = HAL_GetTick();
 8001530:	4606      	mov	r6, r0
        while(__HAL_RCC_GET_FLAG(RCC_FLAG_HSERDY) == RESET)
 8001532:	682b      	ldr	r3, [r5, #0]
 8001534:	039b      	lsls	r3, r3, #14
 8001536:	d4c8      	bmi.n	80014ca <HAL_RCC_OscConfig+0x16>
          if((HAL_GetTick() - tickstart ) > HSE_TIMEOUT_VALUE)
 8001538:	f7ff fc0a 	bl	8000d50 <HAL_GetTick>
 800153c:	1b80      	subs	r0, r0, r6
 800153e:	2864      	cmp	r0, #100	; 0x64
 8001540:	d9f7      	bls.n	8001532 <HAL_RCC_OscConfig+0x7e>
            return HAL_TIMEOUT;
 8001542:	2003      	movs	r0, #3
 8001544:	e7bb      	b.n	80014be <HAL_RCC_OscConfig+0xa>
      __HAL_RCC_HSE_CONFIG(RCC_OscInitStruct->HSEState);
 8001546:	f5b3 2fa0 	cmp.w	r3, #327680	; 0x50000
 800154a:	d104      	bne.n	8001556 <HAL_RCC_OscConfig+0xa2>
 800154c:	682b      	ldr	r3, [r5, #0]
 800154e:	f443 2380 	orr.w	r3, r3, #262144	; 0x40000
 8001552:	602b      	str	r3, [r5, #0]
 8001554:	e7e5      	b.n	8001522 <HAL_RCC_OscConfig+0x6e>
 8001556:	682a      	ldr	r2, [r5, #0]
 8001558:	f422 3280 	bic.w	r2, r2, #65536	; 0x10000
 800155c:	602a      	str	r2, [r5, #0]
 800155e:	682a      	ldr	r2, [r5, #0]
 8001560:	f422 2280 	bic.w	r2, r2, #262144	; 0x40000
 8001564:	602a      	str	r2, [r5, #0]
      if((RCC_OscInitStruct->HSEState) != RCC_HSE_OFF)
 8001566:	2b00      	cmp	r3, #0
 8001568:	d1df      	bne.n	800152a <HAL_RCC_OscConfig+0x76>
        tickstart = HAL_GetTick();
 800156a:	f7ff fbf1 	bl	8000d50 <HAL_GetTick>
 800156e:	4606      	mov	r6, r0
        while(__HAL_RCC_GET_FLAG(RCC_FLAG_HSERDY) != RESET)
 8001570:	682b      	ldr	r3, [r5, #0]
 8001572:	039f      	lsls	r7, r3, #14
 8001574:	d5a9      	bpl.n	80014ca <HAL_RCC_OscConfig+0x16>
          if((HAL_GetTick() - tickstart ) > HSE_TIMEOUT_VALUE)
 8001576:	f7ff fbeb 	bl	8000d50 <HAL_GetTick>
 800157a:	1b80      	subs	r0, r0, r6
 800157c:	2864      	cmp	r0, #100	; 0x64
 800157e:	d9f7      	bls.n	8001570 <HAL_RCC_OscConfig+0xbc>
 8001580:	e7df      	b.n	8001542 <HAL_RCC_OscConfig+0x8e>
    if((__HAL_RCC_GET_SYSCLK_SOURCE() == RCC_CFGR_SWS_HSI) ||\
 8001582:	4b81      	ldr	r3, [pc, #516]	; (8001788 <HAL_RCC_OscConfig+0x2d4>)
 8001584:	689a      	ldr	r2, [r3, #8]
 8001586:	f012 0f0c 	tst.w	r2, #12
 800158a:	d007      	beq.n	800159c <HAL_RCC_OscConfig+0xe8>
      ((__HAL_RCC_GET_SYSCLK_SOURCE() == RCC_CFGR_SWS_PLL) && ((RCC->PLLCFGR & RCC_PLLCFGR_PLLSRC) == RCC_PLLCFGR_PLLSRC_HSI)))
 800158c:	689a      	ldr	r2, [r3, #8]
 800158e:	f002 020c 	and.w	r2, r2, #12
    if((__HAL_RCC_GET_SYSCLK_SOURCE() == RCC_CFGR_SWS_HSI) ||\
 8001592:	2a08      	cmp	r2, #8
 8001594:	d111      	bne.n	80015ba <HAL_RCC_OscConfig+0x106>
      ((__HAL_RCC_GET_SYSCLK_SOURCE() == RCC_CFGR_SWS_PLL) && ((RCC->PLLCFGR & RCC_PLLCFGR_PLLSRC) == RCC_PLLCFGR_PLLSRC_HSI)))
 8001596:	685b      	ldr	r3, [r3, #4]
 8001598:	025e      	lsls	r6, r3, #9
 800159a:	d40e      	bmi.n	80015ba <HAL_RCC_OscConfig+0x106>
      if((__HAL_RCC_GET_FLAG(RCC_FLAG_HSIRDY) != RESET) && (RCC_OscInitStruct->HSIState != RCC_HSI_ON))
 800159c:	4b7a      	ldr	r3, [pc, #488]	; (8001788 <HAL_RCC_OscConfig+0x2d4>)
 800159e:	681a      	ldr	r2, [r3, #0]
 80015a0:	0795      	lsls	r5, r2, #30
 80015a2:	d502      	bpl.n	80015aa <HAL_RCC_OscConfig+0xf6>
 80015a4:	68e2      	ldr	r2, [r4, #12]
 80015a6:	2a01      	cmp	r2, #1
 80015a8:	d188      	bne.n	80014bc <HAL_RCC_OscConfig+0x8>
        __HAL_RCC_HSI_CALIBRATIONVALUE_ADJUST(RCC_OscInitStruct->HSICalibrationValue);
 80015aa:	681a      	ldr	r2, [r3, #0]
 80015ac:	6921      	ldr	r1, [r4, #16]
 80015ae:	f022 02f8 	bic.w	r2, r2, #248	; 0xf8
 80015b2:	ea42 02c1 	orr.w	r2, r2, r1, lsl #3
 80015b6:	601a      	str	r2, [r3, #0]
      if((__HAL_RCC_GET_FLAG(RCC_FLAG_HSIRDY) != RESET) && (RCC_OscInitStruct->HSIState != RCC_HSI_ON))
 80015b8:	e78a      	b.n	80014d0 <HAL_RCC_OscConfig+0x1c>
      if((RCC_OscInitStruct->HSIState)!= RCC_HSI_OFF)
 80015ba:	68e2      	ldr	r2, [r4, #12]
 80015bc:	4b73      	ldr	r3, [pc, #460]	; (800178c <HAL_RCC_OscConfig+0x2d8>)
 80015be:	b1b2      	cbz	r2, 80015ee <HAL_RCC_OscConfig+0x13a>
        __HAL_RCC_HSI_ENABLE();
 80015c0:	2201      	movs	r2, #1
 80015c2:	601a      	str	r2, [r3, #0]
        tickstart = HAL_GetTick();
 80015c4:	f7ff fbc4 	bl	8000d50 <HAL_GetTick>
        while(__HAL_RCC_GET_FLAG(RCC_FLAG_HSIRDY) == RESET)
 80015c8:	4d6f      	ldr	r5, [pc, #444]	; (8001788 <HAL_RCC_OscConfig+0x2d4>)
        tickstart = HAL_GetTick();
 80015ca:	4606      	mov	r6, r0
        while(__HAL_RCC_GET_FLAG(RCC_FLAG_HSIRDY) == RESET)
 80015cc:	682b      	ldr	r3, [r5, #0]
 80015ce:	0798      	lsls	r0, r3, #30
 80015d0:	d507      	bpl.n	80015e2 <HAL_RCC_OscConfig+0x12e>
        __HAL_RCC_HSI_CALIBRATIONVALUE_ADJUST(RCC_OscInitStruct->HSICalibrationValue);
 80015d2:	682b      	ldr	r3, [r5, #0]
 80015d4:	6922      	ldr	r2, [r4, #16]
 80015d6:	f023 03f8 	bic.w	r3, r3, #248	; 0xf8
 80015da:	ea43 03c2 	orr.w	r3, r3, r2, lsl #3
 80015de:	602b      	str	r3, [r5, #0]
 80015e0:	e776      	b.n	80014d0 <HAL_RCC_OscConfig+0x1c>
          if((HAL_GetTick() - tickstart ) > HSI_TIMEOUT_VALUE)
 80015e2:	f7ff fbb5 	bl	8000d50 <HAL_GetTick>
 80015e6:	1b80      	subs	r0, r0, r6
 80015e8:	2802      	cmp	r0, #2
 80015ea:	d9ef      	bls.n	80015cc <HAL_RCC_OscConfig+0x118>
 80015ec:	e7a9      	b.n	8001542 <HAL_RCC_OscConfig+0x8e>
        __HAL_RCC_HSI_DISABLE();
 80015ee:	601a      	str	r2, [r3, #0]
        tickstart = HAL_GetTick();
 80015f0:	f7ff fbae 	bl	8000d50 <HAL_GetTick>
        while(__HAL_RCC_GET_FLAG(RCC_FLAG_HSIRDY) != RESET)
 80015f4:	4d64      	ldr	r5, [pc, #400]	; (8001788 <HAL_RCC_OscConfig+0x2d4>)
        tickstart = HAL_GetTick();
 80015f6:	4606      	mov	r6, r0
        while(__HAL_RCC_GET_FLAG(RCC_FLAG_HSIRDY) != RESET)
 80015f8:	682b      	ldr	r3, [r5, #0]
 80015fa:	0799      	lsls	r1, r3, #30
 80015fc:	f57f af68 	bpl.w	80014d0 <HAL_RCC_OscConfig+0x1c>
          if((HAL_GetTick() - tickstart ) > HSI_TIMEOUT_VALUE)
 8001600:	f7ff fba6 	bl	8000d50 <HAL_GetTick>
 8001604:	1b80      	subs	r0, r0, r6
 8001606:	2802      	cmp	r0, #2
 8001608:	d9f6      	bls.n	80015f8 <HAL_RCC_OscConfig+0x144>
 800160a:	e79a      	b.n	8001542 <HAL_RCC_OscConfig+0x8e>
    if((RCC_OscInitStruct->LSIState)!= RCC_LSI_OFF)
 800160c:	6962      	ldr	r2, [r4, #20]
 800160e:	4b60      	ldr	r3, [pc, #384]	; (8001790 <HAL_RCC_OscConfig+0x2dc>)
 8001610:	b17a      	cbz	r2, 8001632 <HAL_RCC_OscConfig+0x17e>
      __HAL_RCC_LSI_ENABLE();
 8001612:	2201      	movs	r2, #1
 8001614:	601a      	str	r2, [r3, #0]
      tickstart = HAL_GetTick();
 8001616:	f7ff fb9b 	bl	8000d50 <HAL_GetTick>
      while(__HAL_RCC_GET_FLAG(RCC_FLAG_LSIRDY) == RESET)
 800161a:	4d5b      	ldr	r5, [pc, #364]	; (8001788 <HAL_RCC_OscConfig+0x2d4>)
      tickstart = HAL_GetTick();
 800161c:	4606      	mov	r6, r0
      while(__HAL_RCC_GET_FLAG(RCC_FLAG_LSIRDY) == RESET)
 800161e:	6f6b      	ldr	r3, [r5, #116]	; 0x74
 8001620:	079f      	lsls	r7, r3, #30
 8001622:	f53f af59 	bmi.w	80014d8 <HAL_RCC_OscConfig+0x24>
        if((HAL_GetTick() - tickstart ) > LSI_TIMEOUT_VALUE)
 8001626:	f7ff fb93 	bl	8000d50 <HAL_GetTick>
 800162a:	1b80      	subs	r0, r0, r6
 800162c:	2802      	cmp	r0, #2
 800162e:	d9f6      	bls.n	800161e <HAL_RCC_OscConfig+0x16a>
 8001630:	e787      	b.n	8001542 <HAL_RCC_OscConfig+0x8e>
      __HAL_RCC_LSI_DISABLE();
 8001632:	601a      	str	r2, [r3, #0]
      tickstart = HAL_GetTick();
 8001634:	f7ff fb8c 	bl	8000d50 <HAL_GetTick>
      while(__HAL_RCC_GET_FLAG(RCC_FLAG_LSIRDY) != RESET)
 8001638:	4d53      	ldr	r5, [pc, #332]	; (8001788 <HAL_RCC_OscConfig+0x2d4>)
      tickstart = HAL_GetTick();
 800163a:	4606      	mov	r6, r0
      while(__HAL_RCC_GET_FLAG(RCC_FLAG_LSIRDY) != RESET)
 800163c:	6f6b      	ldr	r3, [r5, #116]	; 0x74
 800163e:	0798      	lsls	r0, r3, #30
 8001640:	f57f af4a 	bpl.w	80014d8 <HAL_RCC_OscConfig+0x24>
        if((HAL_GetTick() - tickstart ) > LSI_TIMEOUT_VALUE)
 8001644:	f7ff fb84 	bl	8000d50 <HAL_GetTick>
 8001648:	1b80      	subs	r0, r0, r6
 800164a:	2802      	cmp	r0, #2
 800164c:	d9f6      	bls.n	800163c <HAL_RCC_OscConfig+0x188>
 800164e:	e778      	b.n	8001542 <HAL_RCC_OscConfig+0x8e>
    if(__HAL_RCC_PWR_IS_CLK_DISABLED())
 8001650:	4b4d      	ldr	r3, [pc, #308]	; (8001788 <HAL_RCC_OscConfig+0x2d4>)
 8001652:	6c1a      	ldr	r2, [r3, #64]	; 0x40
 8001654:	f012 5280 	ands.w	r2, r2, #268435456	; 0x10000000
 8001658:	d128      	bne.n	80016ac <HAL_RCC_OscConfig+0x1f8>
      __HAL_RCC_PWR_CLK_ENABLE();
 800165a:	9201      	str	r2, [sp, #4]
 800165c:	6c1a      	ldr	r2, [r3, #64]	; 0x40
 800165e:	f042 5280 	orr.w	r2, r2, #268435456	; 0x10000000
 8001662:	641a      	str	r2, [r3, #64]	; 0x40
 8001664:	6c1b      	ldr	r3, [r3, #64]	; 0x40
 8001666:	f003 5380 	and.w	r3, r3, #268435456	; 0x10000000
 800166a:	9301      	str	r3, [sp, #4]
 800166c:	9b01      	ldr	r3, [sp, #4]
      pwrclkchanged = SET;
 800166e:	2601      	movs	r6, #1
    if(HAL_IS_BIT_CLR(PWR->CR, PWR_CR_DBP))
 8001670:	4d48      	ldr	r5, [pc, #288]	; (8001794 <HAL_RCC_OscConfig+0x2e0>)
 8001672:	682b      	ldr	r3, [r5, #0]
 8001674:	05d9      	lsls	r1, r3, #23
 8001676:	d51b      	bpl.n	80016b0 <HAL_RCC_OscConfig+0x1fc>
    __HAL_RCC_LSE_CONFIG(RCC_OscInitStruct->LSEState);
 8001678:	68a3      	ldr	r3, [r4, #8]
 800167a:	4d43      	ldr	r5, [pc, #268]	; (8001788 <HAL_RCC_OscConfig+0x2d4>)
 800167c:	2b01      	cmp	r3, #1
 800167e:	d127      	bne.n	80016d0 <HAL_RCC_OscConfig+0x21c>
 8001680:	6f2b      	ldr	r3, [r5, #112]	; 0x70
 8001682:	f043 0301 	orr.w	r3, r3, #1
 8001686:	672b      	str	r3, [r5, #112]	; 0x70
      tickstart = HAL_GetTick();
 8001688:	f7ff fb62 	bl	8000d50 <HAL_GetTick>
      while(__HAL_RCC_GET_FLAG(RCC_FLAG_LSERDY) == RESET)
 800168c:	4d3e      	ldr	r5, [pc, #248]	; (8001788 <HAL_RCC_OscConfig+0x2d4>)
      tickstart = HAL_GetTick();
 800168e:	4607      	mov	r7, r0
        if((HAL_GetTick() - tickstart ) > RCC_LSE_TIMEOUT_VALUE)
 8001690:	f241 3888 	movw	r8, #5000	; 0x1388
      while(__HAL_RCC_GET_FLAG(RCC_FLAG_LSERDY) == RESET)
 8001694:	6f2b      	ldr	r3, [r5, #112]	; 0x70
 8001696:	079b      	lsls	r3, r3, #30
 8001698:	d539      	bpl.n	800170e <HAL_RCC_OscConfig+0x25a>
    if(pwrclkchanged == SET)
 800169a:	2e00      	cmp	r6, #0
 800169c:	f43f af20 	beq.w	80014e0 <HAL_RCC_OscConfig+0x2c>
      __HAL_RCC_PWR_CLK_DISABLE();
 80016a0:	4a39      	ldr	r2, [pc, #228]	; (8001788 <HAL_RCC_OscConfig+0x2d4>)
 80016a2:	6c13      	ldr	r3, [r2, #64]	; 0x40
 80016a4:	f023 5380 	bic.w	r3, r3, #268435456	; 0x10000000
 80016a8:	6413      	str	r3, [r2, #64]	; 0x40
 80016aa:	e719      	b.n	80014e0 <HAL_RCC_OscConfig+0x2c>
    FlagStatus       pwrclkchanged = RESET;
 80016ac:	2600      	movs	r6, #0
 80016ae:	e7df      	b.n	8001670 <HAL_RCC_OscConfig+0x1bc>
      SET_BIT(PWR->CR, PWR_CR_DBP);
 80016b0:	682b      	ldr	r3, [r5, #0]
 80016b2:	f443 7380 	orr.w	r3, r3, #256	; 0x100
 80016b6:	602b      	str	r3, [r5, #0]
      tickstart = HAL_GetTick();
 80016b8:	f7ff fb4a 	bl	8000d50 <HAL_GetTick>
 80016bc:	4607      	mov	r7, r0
      while(HAL_IS_BIT_CLR(PWR->CR, PWR_CR_DBP))
 80016be:	682b      	ldr	r3, [r5, #0]
 80016c0:	05da      	lsls	r2, r3, #23
 80016c2:	d4d9      	bmi.n	8001678 <HAL_RCC_OscConfig+0x1c4>
        if((HAL_GetTick() - tickstart) > RCC_DBP_TIMEOUT_VALUE)
 80016c4:	f7ff fb44 	bl	8000d50 <HAL_GetTick>
 80016c8:	1bc0      	subs	r0, r0, r7
 80016ca:	2802      	cmp	r0, #2
 80016cc:	d9f7      	bls.n	80016be <HAL_RCC_OscConfig+0x20a>
 80016ce:	e738      	b.n	8001542 <HAL_RCC_OscConfig+0x8e>
    __HAL_RCC_LSE_CONFIG(RCC_OscInitStruct->LSEState);
 80016d0:	2b05      	cmp	r3, #5
 80016d2:	d104      	bne.n	80016de <HAL_RCC_OscConfig+0x22a>
 80016d4:	6f2b      	ldr	r3, [r5, #112]	; 0x70
 80016d6:	f043 0304 	orr.w	r3, r3, #4
 80016da:	672b      	str	r3, [r5, #112]	; 0x70
 80016dc:	e7d0      	b.n	8001680 <HAL_RCC_OscConfig+0x1cc>
 80016de:	6f2a      	ldr	r2, [r5, #112]	; 0x70
 80016e0:	f022 0201 	bic.w	r2, r2, #1
 80016e4:	672a      	str	r2, [r5, #112]	; 0x70
 80016e6:	6f2a      	ldr	r2, [r5, #112]	; 0x70
 80016e8:	f022 0204 	bic.w	r2, r2, #4
 80016ec:	672a      	str	r2, [r5, #112]	; 0x70
    if((RCC_OscInitStruct->LSEState) != RCC_LSE_OFF)
 80016ee:	2b00      	cmp	r3, #0
 80016f0:	d1ca      	bne.n	8001688 <HAL_RCC_OscConfig+0x1d4>
      tickstart = HAL_GetTick();
 80016f2:	f7ff fb2d 	bl	8000d50 <HAL_GetTick>
        if((HAL_GetTick() - tickstart ) > RCC_LSE_TIMEOUT_VALUE)
 80016f6:	f241 3888 	movw	r8, #5000	; 0x1388
      tickstart = HAL_GetTick();
 80016fa:	4607      	mov	r7, r0
      while(__HAL_RCC_GET_FLAG(RCC_FLAG_LSERDY) != RESET)
 80016fc:	6f2b      	ldr	r3, [r5, #112]	; 0x70
 80016fe:	0798      	lsls	r0, r3, #30
 8001700:	d5cb      	bpl.n	800169a <HAL_RCC_OscConfig+0x1e6>
        if((HAL_GetTick() - tickstart ) > RCC_LSE_TIMEOUT_VALUE)
 8001702:	f7ff fb25 	bl	8000d50 <HAL_GetTick>
 8001706:	1bc0      	subs	r0, r0, r7
 8001708:	4540      	cmp	r0, r8
 800170a:	d9f7      	bls.n	80016fc <HAL_RCC_OscConfig+0x248>
 800170c:	e719      	b.n	8001542 <HAL_RCC_OscConfig+0x8e>
        if((HAL_GetTick() - tickstart ) > RCC_LSE_TIMEOUT_VALUE)
 800170e:	f7ff fb1f 	bl	8000d50 <HAL_GetTick>
 8001712:	1bc0      	subs	r0, r0, r7
 8001714:	4540      	cmp	r0, r8
 8001716:	d9bd      	bls.n	8001694 <HAL_RCC_OscConfig+0x1e0>
 8001718:	e713      	b.n	8001542 <HAL_RCC_OscConfig+0x8e>
    if(__HAL_RCC_GET_SYSCLK_SOURCE() != RCC_CFGR_SWS_PLL)
 800171a:	4d1b      	ldr	r5, [pc, #108]	; (8001788 <HAL_RCC_OscConfig+0x2d4>)
 800171c:	68ab      	ldr	r3, [r5, #8]
 800171e:	f003 030c 	and.w	r3, r3, #12
 8001722:	2b08      	cmp	r3, #8
 8001724:	f43f aeca 	beq.w	80014bc <HAL_RCC_OscConfig+0x8>
 8001728:	4e1b      	ldr	r6, [pc, #108]	; (8001798 <HAL_RCC_OscConfig+0x2e4>)
 800172a:	2300      	movs	r3, #0
      if((RCC_OscInitStruct->PLL.PLLState) == RCC_PLL_ON)
 800172c:	2a02      	cmp	r2, #2
        __HAL_RCC_PLL_DISABLE();
 800172e:	6033      	str	r3, [r6, #0]
      if((RCC_OscInitStruct->PLL.PLLState) == RCC_PLL_ON)
 8001730:	d134      	bne.n	800179c <HAL_RCC_OscConfig+0x2e8>
        tickstart = HAL_GetTick();
 8001732:	f7ff fb0d 	bl	8000d50 <HAL_GetTick>
 8001736:	4607      	mov	r7, r0
        while(__HAL_RCC_GET_FLAG(RCC_FLAG_PLLRDY) != RESET)
 8001738:	682b      	ldr	r3, [r5, #0]
 800173a:	0199      	lsls	r1, r3, #6
 800173c:	d41e      	bmi.n	800177c <HAL_RCC_OscConfig+0x2c8>
        WRITE_REG(RCC->PLLCFGR, (RCC_OscInitStruct->PLL.PLLSource                                            | \
 800173e:	6a22      	ldr	r2, [r4, #32]
 8001740:	69e3      	ldr	r3, [r4, #28]
 8001742:	4313      	orrs	r3, r2
 8001744:	6a62      	ldr	r2, [r4, #36]	; 0x24
 8001746:	ea43 1382 	orr.w	r3, r3, r2, lsl #6
 800174a:	6ae2      	ldr	r2, [r4, #44]	; 0x2c
 800174c:	ea43 6302 	orr.w	r3, r3, r2, lsl #24
 8001750:	6aa2      	ldr	r2, [r4, #40]	; 0x28
        while(__HAL_RCC_GET_FLAG(RCC_FLAG_PLLRDY) == RESET)
 8001752:	4c0d      	ldr	r4, [pc, #52]	; (8001788 <HAL_RCC_OscConfig+0x2d4>)
        WRITE_REG(RCC->PLLCFGR, (RCC_OscInitStruct->PLL.PLLSource                                            | \
 8001754:	0852      	lsrs	r2, r2, #1
 8001756:	3a01      	subs	r2, #1
 8001758:	ea43 4302 	orr.w	r3, r3, r2, lsl #16
 800175c:	606b      	str	r3, [r5, #4]
        __HAL_RCC_PLL_ENABLE();
 800175e:	2301      	movs	r3, #1
 8001760:	6033      	str	r3, [r6, #0]
        tickstart = HAL_GetTick();
 8001762:	f7ff faf5 	bl	8000d50 <HAL_GetTick>
 8001766:	4605      	mov	r5, r0
        while(__HAL_RCC_GET_FLAG(RCC_FLAG_PLLRDY) == RESET)
 8001768:	6823      	ldr	r3, [r4, #0]
 800176a:	019a      	lsls	r2, r3, #6
 800176c:	f53f aebc 	bmi.w	80014e8 <HAL_RCC_OscConfig+0x34>
          if((HAL_GetTick() - tickstart ) > PLL_TIMEOUT_VALUE)
 8001770:	f7ff faee 	bl	8000d50 <HAL_GetTick>
 8001774:	1b40      	subs	r0, r0, r5
 8001776:	2802      	cmp	r0, #2
 8001778:	d9f6      	bls.n	8001768 <HAL_RCC_OscConfig+0x2b4>
 800177a:	e6e2      	b.n	8001542 <HAL_RCC_OscConfig+0x8e>
          if((HAL_GetTick() - tickstart ) > PLL_TIMEOUT_VALUE)
 800177c:	f7ff fae8 	bl	8000d50 <HAL_GetTick>
 8001780:	1bc0      	subs	r0, r0, r7
 8001782:	2802      	cmp	r0, #2
 8001784:	d9d8      	bls.n	8001738 <HAL_RCC_OscConfig+0x284>
 8001786:	e6dc      	b.n	8001542 <HAL_RCC_OscConfig+0x8e>
 8001788:	40023800 	.word	0x40023800
 800178c:	42470000 	.word	0x42470000
 8001790:	42470e80 	.word	0x42470e80
 8001794:	40007000 	.word	0x40007000
 8001798:	42470060 	.word	0x42470060
        tickstart = HAL_GetTick();
 800179c:	f7ff fad8 	bl	8000d50 <HAL_GetTick>
 80017a0:	4604      	mov	r4, r0
        while(__HAL_RCC_GET_FLAG(RCC_FLAG_PLLRDY) != RESET)
 80017a2:	682b      	ldr	r3, [r5, #0]
 80017a4:	019b      	lsls	r3, r3, #6
 80017a6:	f57f ae9f 	bpl.w	80014e8 <HAL_RCC_OscConfig+0x34>
          if((HAL_GetTick() - tickstart ) > PLL_TIMEOUT_VALUE)
 80017aa:	f7ff fad1 	bl	8000d50 <HAL_GetTick>
 80017ae:	1b00      	subs	r0, r0, r4
 80017b0:	2802      	cmp	r0, #2
 80017b2:	d9f6      	bls.n	80017a2 <HAL_RCC_OscConfig+0x2ee>
 80017b4:	e6c5      	b.n	8001542 <HAL_RCC_OscConfig+0x8e>
 80017b6:	bf00      	nop

080017b8 <HAL_RCC_GetSysClockFreq>:
{
  uint32_t pllm = 0U, pllvco = 0U, pllp = 0U;
  uint32_t sysclockfreq = 0U;

  /* Get SYSCLK source -------------------------------------------------------*/
  switch (RCC->CFGR & RCC_CFGR_SWS)
 80017b8:	4913      	ldr	r1, [pc, #76]	; (8001808 <HAL_RCC_GetSysClockFreq+0x50>)
{
 80017ba:	b508      	push	{r3, lr}
  switch (RCC->CFGR & RCC_CFGR_SWS)
 80017bc:	688b      	ldr	r3, [r1, #8]
 80017be:	f003 030c 	and.w	r3, r3, #12
 80017c2:	2b04      	cmp	r3, #4
 80017c4:	d003      	beq.n	80017ce <HAL_RCC_GetSysClockFreq+0x16>
 80017c6:	2b08      	cmp	r3, #8
 80017c8:	d003      	beq.n	80017d2 <HAL_RCC_GetSysClockFreq+0x1a>
  {
    case RCC_CFGR_SWS_HSI:  /* HSI used as system clock source */
    {
      sysclockfreq = HSI_VALUE;
 80017ca:	4810      	ldr	r0, [pc, #64]	; (800180c <HAL_RCC_GetSysClockFreq+0x54>)
      sysclockfreq = HSI_VALUE;
      break;
    }
  }
  return sysclockfreq;
}
 80017cc:	bd08      	pop	{r3, pc}
      sysclockfreq = HSE_VALUE;
 80017ce:	4810      	ldr	r0, [pc, #64]	; (8001810 <HAL_RCC_GetSysClockFreq+0x58>)
 80017d0:	bd08      	pop	{r3, pc}
      pllm = RCC->PLLCFGR & RCC_PLLCFGR_PLLM;
 80017d2:	684a      	ldr	r2, [r1, #4]
      if(__HAL_RCC_GET_PLL_OSCSOURCE() != RCC_PLLSOURCE_HSI)
 80017d4:	684b      	ldr	r3, [r1, #4]
        pllvco = (uint32_t) ((((uint64_t) HSE_VALUE * ((uint64_t) ((RCC->PLLCFGR & RCC_PLLCFGR_PLLN) >> RCC_PLLCFGR_PLLN_Pos)))) / (uint64_t)pllm);
 80017d6:	6849      	ldr	r1, [r1, #4]
      if(__HAL_RCC_GET_PLL_OSCSOURCE() != RCC_PLLSOURCE_HSI)
 80017d8:	f413 0380 	ands.w	r3, r3, #4194304	; 0x400000
        pllvco = (uint32_t) ((((uint64_t) HSE_VALUE * ((uint64_t) ((RCC->PLLCFGR & RCC_PLLCFGR_PLLN) >> RCC_PLLCFGR_PLLN_Pos)))) / (uint64_t)pllm);
 80017dc:	bf14      	ite	ne
 80017de:	480c      	ldrne	r0, [pc, #48]	; (8001810 <HAL_RCC_GetSysClockFreq+0x58>)
        pllvco = (uint32_t) ((((uint64_t) HSI_VALUE * ((uint64_t) ((RCC->PLLCFGR & RCC_PLLCFGR_PLLN) >> RCC_PLLCFGR_PLLN_Pos)))) / (uint64_t)pllm);
 80017e0:	480a      	ldreq	r0, [pc, #40]	; (800180c <HAL_RCC_GetSysClockFreq+0x54>)
        pllvco = (uint32_t) ((((uint64_t) HSE_VALUE * ((uint64_t) ((RCC->PLLCFGR & RCC_PLLCFGR_PLLN) >> RCC_PLLCFGR_PLLN_Pos)))) / (uint64_t)pllm);
 80017e2:	f3c1 1188 	ubfx	r1, r1, #6, #9
 80017e6:	bf18      	it	ne
 80017e8:	2300      	movne	r3, #0
      pllm = RCC->PLLCFGR & RCC_PLLCFGR_PLLM;
 80017ea:	f002 023f 	and.w	r2, r2, #63	; 0x3f
        pllvco = (uint32_t) ((((uint64_t) HSI_VALUE * ((uint64_t) ((RCC->PLLCFGR & RCC_PLLCFGR_PLLN) >> RCC_PLLCFGR_PLLN_Pos)))) / (uint64_t)pllm);
 80017ee:	fba1 0100 	umull	r0, r1, r1, r0
 80017f2:	f7ff f8db 	bl	80009ac <__aeabi_uldivmod>
      pllp = ((((RCC->PLLCFGR & RCC_PLLCFGR_PLLP) >> RCC_PLLCFGR_PLLP_Pos) + 1U) *2U);
 80017f6:	4b04      	ldr	r3, [pc, #16]	; (8001808 <HAL_RCC_GetSysClockFreq+0x50>)
 80017f8:	685b      	ldr	r3, [r3, #4]
 80017fa:	f3c3 4301 	ubfx	r3, r3, #16, #2
 80017fe:	3301      	adds	r3, #1
 8001800:	005b      	lsls	r3, r3, #1
      sysclockfreq = pllvco/pllp;
 8001802:	fbb0 f0f3 	udiv	r0, r0, r3
 8001806:	bd08      	pop	{r3, pc}
 8001808:	40023800 	.word	0x40023800
 800180c:	00f42400 	.word	0x00f42400
 8001810:	007a1200 	.word	0x007a1200

08001814 <HAL_RCC_ClockConfig>:
{
 8001814:	e92d 41f0 	stmdb	sp!, {r4, r5, r6, r7, r8, lr}
 8001818:	460d      	mov	r5, r1
  if(RCC_ClkInitStruct == NULL)
 800181a:	4604      	mov	r4, r0
 800181c:	b910      	cbnz	r0, 8001824 <HAL_RCC_ClockConfig+0x10>
    return HAL_ERROR;
 800181e:	2001      	movs	r0, #1
 8001820:	e8bd 81f0 	ldmia.w	sp!, {r4, r5, r6, r7, r8, pc}
  if(FLatency > __HAL_FLASH_GET_LATENCY())
 8001824:	4b44      	ldr	r3, [pc, #272]	; (8001938 <HAL_RCC_ClockConfig+0x124>)
 8001826:	681a      	ldr	r2, [r3, #0]
 8001828:	f002 020f 	and.w	r2, r2, #15
 800182c:	428a      	cmp	r2, r1
 800182e:	d328      	bcc.n	8001882 <HAL_RCC_ClockConfig+0x6e>
  if(((RCC_ClkInitStruct->ClockType) & RCC_CLOCKTYPE_HCLK) == RCC_CLOCKTYPE_HCLK)
 8001830:	6821      	ldr	r1, [r4, #0]
 8001832:	078f      	lsls	r7, r1, #30
 8001834:	d42d      	bmi.n	8001892 <HAL_RCC_ClockConfig+0x7e>
  if(((RCC_ClkInitStruct->ClockType) & RCC_CLOCKTYPE_SYSCLK) == RCC_CLOCKTYPE_SYSCLK)
 8001836:	07c8      	lsls	r0, r1, #31
 8001838:	d440      	bmi.n	80018bc <HAL_RCC_ClockConfig+0xa8>
  if(FLatency < __HAL_FLASH_GET_LATENCY())
 800183a:	4b3f      	ldr	r3, [pc, #252]	; (8001938 <HAL_RCC_ClockConfig+0x124>)
 800183c:	681a      	ldr	r2, [r3, #0]
 800183e:	f002 020f 	and.w	r2, r2, #15
 8001842:	4295      	cmp	r5, r2
 8001844:	d366      	bcc.n	8001914 <HAL_RCC_ClockConfig+0x100>
  if(((RCC_ClkInitStruct->ClockType) & RCC_CLOCKTYPE_PCLK1) == RCC_CLOCKTYPE_PCLK1)
 8001846:	6822      	ldr	r2, [r4, #0]
 8001848:	0751      	lsls	r1, r2, #29
 800184a:	d46c      	bmi.n	8001926 <HAL_RCC_ClockConfig+0x112>
  if(((RCC_ClkInitStruct->ClockType) & RCC_CLOCKTYPE_PCLK2) == RCC_CLOCKTYPE_PCLK2)
 800184c:	0713      	lsls	r3, r2, #28
 800184e:	d507      	bpl.n	8001860 <HAL_RCC_ClockConfig+0x4c>
    MODIFY_REG(RCC->CFGR, RCC_CFGR_PPRE2, ((RCC_ClkInitStruct->APB2CLKDivider) << 3U));
 8001850:	4a3a      	ldr	r2, [pc, #232]	; (800193c <HAL_RCC_ClockConfig+0x128>)
 8001852:	6921      	ldr	r1, [r4, #16]
 8001854:	6893      	ldr	r3, [r2, #8]
 8001856:	f423 4360 	bic.w	r3, r3, #57344	; 0xe000
 800185a:	ea43 03c1 	orr.w	r3, r3, r1, lsl #3
 800185e:	6093      	str	r3, [r2, #8]
  SystemCoreClock = HAL_RCC_GetSysClockFreq() >> AHBPrescTable[(RCC->CFGR & RCC_CFGR_HPRE)>> RCC_CFGR_HPRE_Pos];
 8001860:	f7ff ffaa 	bl	80017b8 <HAL_RCC_GetSysClockFreq>
 8001864:	4b35      	ldr	r3, [pc, #212]	; (800193c <HAL_RCC_ClockConfig+0x128>)
 8001866:	4a36      	ldr	r2, [pc, #216]	; (8001940 <HAL_RCC_ClockConfig+0x12c>)
 8001868:	689b      	ldr	r3, [r3, #8]
 800186a:	f3c3 1303 	ubfx	r3, r3, #4, #4
 800186e:	5cd3      	ldrb	r3, [r2, r3]
 8001870:	40d8      	lsrs	r0, r3
 8001872:	4b34      	ldr	r3, [pc, #208]	; (8001944 <HAL_RCC_ClockConfig+0x130>)
 8001874:	6018      	str	r0, [r3, #0]
  HAL_InitTick (TICK_INT_PRIORITY);
 8001876:	2000      	movs	r0, #0
 8001878:	f7ff fa20 	bl	8000cbc <HAL_InitTick>
  return HAL_OK;
 800187c:	2000      	movs	r0, #0
 800187e:	e8bd 81f0 	ldmia.w	sp!, {r4, r5, r6, r7, r8, pc}
    __HAL_FLASH_SET_LATENCY(FLatency);
 8001882:	b2ca      	uxtb	r2, r1
 8001884:	701a      	strb	r2, [r3, #0]
    if(__HAL_FLASH_GET_LATENCY() != FLatency)
 8001886:	681b      	ldr	r3, [r3, #0]
 8001888:	f003 030f 	and.w	r3, r3, #15
 800188c:	4299      	cmp	r1, r3
 800188e:	d1c6      	bne.n	800181e <HAL_RCC_ClockConfig+0xa>
 8001890:	e7ce      	b.n	8001830 <HAL_RCC_ClockConfig+0x1c>
 8001892:	4b2a      	ldr	r3, [pc, #168]	; (800193c <HAL_RCC_ClockConfig+0x128>)
    if(((RCC_ClkInitStruct->ClockType) & RCC_CLOCKTYPE_PCLK1) == RCC_CLOCKTYPE_PCLK1)
 8001894:	f011 0f04 	tst.w	r1, #4
      MODIFY_REG(RCC->CFGR, RCC_CFGR_PPRE1, RCC_HCLK_DIV16);
 8001898:	bf1e      	ittt	ne
 800189a:	689a      	ldrne	r2, [r3, #8]
 800189c:	f442 52e0 	orrne.w	r2, r2, #7168	; 0x1c00
 80018a0:	609a      	strne	r2, [r3, #8]
    if(((RCC_ClkInitStruct->ClockType) & RCC_CLOCKTYPE_PCLK2) == RCC_CLOCKTYPE_PCLK2)
 80018a2:	070e      	lsls	r6, r1, #28
      MODIFY_REG(RCC->CFGR, RCC_CFGR_PPRE2, (RCC_HCLK_DIV16 << 3));
 80018a4:	bf42      	ittt	mi
 80018a6:	689a      	ldrmi	r2, [r3, #8]
 80018a8:	f442 4260 	orrmi.w	r2, r2, #57344	; 0xe000
 80018ac:	609a      	strmi	r2, [r3, #8]
    MODIFY_REG(RCC->CFGR, RCC_CFGR_HPRE, RCC_ClkInitStruct->AHBCLKDivider);
 80018ae:	689a      	ldr	r2, [r3, #8]
 80018b0:	68a0      	ldr	r0, [r4, #8]
 80018b2:	f022 02f0 	bic.w	r2, r2, #240	; 0xf0
 80018b6:	4302      	orrs	r2, r0
 80018b8:	609a      	str	r2, [r3, #8]
 80018ba:	e7bc      	b.n	8001836 <HAL_RCC_ClockConfig+0x22>
    if(RCC_ClkInitStruct->SYSCLKSource == RCC_SYSCLKSOURCE_HSE)
 80018bc:	6862      	ldr	r2, [r4, #4]
 80018be:	4b1f      	ldr	r3, [pc, #124]	; (800193c <HAL_RCC_ClockConfig+0x128>)
 80018c0:	2a01      	cmp	r2, #1
 80018c2:	d11d      	bne.n	8001900 <HAL_RCC_ClockConfig+0xec>
      if(__HAL_RCC_GET_FLAG(RCC_FLAG_HSERDY) == RESET)
 80018c4:	681b      	ldr	r3, [r3, #0]
 80018c6:	f413 3f00 	tst.w	r3, #131072	; 0x20000
      if(__HAL_RCC_GET_FLAG(RCC_FLAG_HSIRDY) == RESET)
 80018ca:	d0a8      	beq.n	800181e <HAL_RCC_ClockConfig+0xa>
    __HAL_RCC_SYSCLK_CONFIG(RCC_ClkInitStruct->SYSCLKSource);
 80018cc:	4e1b      	ldr	r6, [pc, #108]	; (800193c <HAL_RCC_ClockConfig+0x128>)
 80018ce:	68b3      	ldr	r3, [r6, #8]
 80018d0:	f023 0303 	bic.w	r3, r3, #3
 80018d4:	4313      	orrs	r3, r2
 80018d6:	60b3      	str	r3, [r6, #8]
    tickstart = HAL_GetTick();
 80018d8:	f7ff fa3a 	bl	8000d50 <HAL_GetTick>
      if ((HAL_GetTick() - tickstart) > CLOCKSWITCH_TIMEOUT_VALUE)
 80018dc:	f241 3888 	movw	r8, #5000	; 0x1388
    tickstart = HAL_GetTick();
 80018e0:	4607      	mov	r7, r0
    while (__HAL_RCC_GET_SYSCLK_SOURCE() != (RCC_ClkInitStruct->SYSCLKSource << RCC_CFGR_SWS_Pos))
 80018e2:	68b3      	ldr	r3, [r6, #8]
 80018e4:	6862      	ldr	r2, [r4, #4]
 80018e6:	f003 030c 	and.w	r3, r3, #12
 80018ea:	ebb3 0f82 	cmp.w	r3, r2, lsl #2
 80018ee:	d0a4      	beq.n	800183a <HAL_RCC_ClockConfig+0x26>
      if ((HAL_GetTick() - tickstart) > CLOCKSWITCH_TIMEOUT_VALUE)
 80018f0:	f7ff fa2e 	bl	8000d50 <HAL_GetTick>
 80018f4:	1bc0      	subs	r0, r0, r7
 80018f6:	4540      	cmp	r0, r8
 80018f8:	d9f3      	bls.n	80018e2 <HAL_RCC_ClockConfig+0xce>
        return HAL_TIMEOUT;
 80018fa:	2003      	movs	r0, #3
}
 80018fc:	e8bd 81f0 	ldmia.w	sp!, {r4, r5, r6, r7, r8, pc}
    else if((RCC_ClkInitStruct->SYSCLKSource == RCC_SYSCLKSOURCE_PLLCLK)   ||
 8001900:	1e91      	subs	r1, r2, #2
 8001902:	2901      	cmp	r1, #1
      if(__HAL_RCC_GET_FLAG(RCC_FLAG_PLLRDY) == RESET)
 8001904:	681b      	ldr	r3, [r3, #0]
    else if((RCC_ClkInitStruct->SYSCLKSource == RCC_SYSCLKSOURCE_PLLCLK)   ||
 8001906:	d802      	bhi.n	800190e <HAL_RCC_ClockConfig+0xfa>
      if(__HAL_RCC_GET_FLAG(RCC_FLAG_PLLRDY) == RESET)
 8001908:	f013 7f00 	tst.w	r3, #33554432	; 0x2000000
 800190c:	e7dd      	b.n	80018ca <HAL_RCC_ClockConfig+0xb6>
      if(__HAL_RCC_GET_FLAG(RCC_FLAG_HSIRDY) == RESET)
 800190e:	f013 0f02 	tst.w	r3, #2
 8001912:	e7da      	b.n	80018ca <HAL_RCC_ClockConfig+0xb6>
    __HAL_FLASH_SET_LATENCY(FLatency);
 8001914:	b2ea      	uxtb	r2, r5
 8001916:	701a      	strb	r2, [r3, #0]
    if(__HAL_FLASH_GET_LATENCY() != FLatency)
 8001918:	681b      	ldr	r3, [r3, #0]
 800191a:	f003 030f 	and.w	r3, r3, #15
 800191e:	429d      	cmp	r5, r3
 8001920:	f47f af7d 	bne.w	800181e <HAL_RCC_ClockConfig+0xa>
 8001924:	e78f      	b.n	8001846 <HAL_RCC_ClockConfig+0x32>
    MODIFY_REG(RCC->CFGR, RCC_CFGR_PPRE1, RCC_ClkInitStruct->APB1CLKDivider);
 8001926:	4905      	ldr	r1, [pc, #20]	; (800193c <HAL_RCC_ClockConfig+0x128>)
 8001928:	68e0      	ldr	r0, [r4, #12]
 800192a:	688b      	ldr	r3, [r1, #8]
 800192c:	f423 53e0 	bic.w	r3, r3, #7168	; 0x1c00
 8001930:	4303      	orrs	r3, r0
 8001932:	608b      	str	r3, [r1, #8]
 8001934:	e78a      	b.n	800184c <HAL_RCC_ClockConfig+0x38>
 8001936:	bf00      	nop
 8001938:	40023c00 	.word	0x40023c00
 800193c:	40023800 	.word	0x40023800
 8001940:	08002a20 	.word	0x08002a20
 8001944:	20000010 	.word	0x20000010

08001948 <HAL_RCC_GetHCLKFreq>:
  * @retval HCLK frequency
  */
uint32_t HAL_RCC_GetHCLKFreq(void)
{
  return SystemCoreClock;
}
 8001948:	4b01      	ldr	r3, [pc, #4]	; (8001950 <HAL_RCC_GetHCLKFreq+0x8>)
 800194a:	6818      	ldr	r0, [r3, #0]
 800194c:	4770      	bx	lr
 800194e:	bf00      	nop
 8001950:	20000010 	.word	0x20000010

08001954 <HAL_RCC_GetPCLK1Freq>:
  * @retval PCLK1 frequency
  */
uint32_t HAL_RCC_GetPCLK1Freq(void)
{
  /* Get HCLK source and Compute PCLK1 frequency ---------------------------*/
  return (HAL_RCC_GetHCLKFreq() >> APBPrescTable[(RCC->CFGR & RCC_CFGR_PPRE1)>> RCC_CFGR_PPRE1_Pos]);
 8001954:	4b04      	ldr	r3, [pc, #16]	; (8001968 <HAL_RCC_GetPCLK1Freq+0x14>)
 8001956:	4a05      	ldr	r2, [pc, #20]	; (800196c <HAL_RCC_GetPCLK1Freq+0x18>)
 8001958:	689b      	ldr	r3, [r3, #8]
 800195a:	f3c3 2382 	ubfx	r3, r3, #10, #3
 800195e:	5cd3      	ldrb	r3, [r2, r3]
 8001960:	4a03      	ldr	r2, [pc, #12]	; (8001970 <HAL_RCC_GetPCLK1Freq+0x1c>)
 8001962:	6810      	ldr	r0, [r2, #0]
}
 8001964:	40d8      	lsrs	r0, r3
 8001966:	4770      	bx	lr
 8001968:	40023800 	.word	0x40023800
 800196c:	08002a30 	.word	0x08002a30
 8001970:	20000010 	.word	0x20000010

08001974 <HAL_RCC_GetPCLK2Freq>:
  * @retval PCLK2 frequency
  */
uint32_t HAL_RCC_GetPCLK2Freq(void)
{
  /* Get HCLK source and Compute PCLK2 frequency ---------------------------*/
  return (HAL_RCC_GetHCLKFreq()>> APBPrescTable[(RCC->CFGR & RCC_CFGR_PPRE2)>> RCC_CFGR_PPRE2_Pos]);
 8001974:	4b04      	ldr	r3, [pc, #16]	; (8001988 <HAL_RCC_GetPCLK2Freq+0x14>)
 8001976:	4a05      	ldr	r2, [pc, #20]	; (800198c <HAL_RCC_GetPCLK2Freq+0x18>)
 8001978:	689b      	ldr	r3, [r3, #8]
 800197a:	f3c3 3342 	ubfx	r3, r3, #13, #3
 800197e:	5cd3      	ldrb	r3, [r2, r3]
 8001980:	4a03      	ldr	r2, [pc, #12]	; (8001990 <HAL_RCC_GetPCLK2Freq+0x1c>)
 8001982:	6810      	ldr	r0, [r2, #0]
}
 8001984:	40d8      	lsrs	r0, r3
 8001986:	4770      	bx	lr
 8001988:	40023800 	.word	0x40023800
 800198c:	08002a30 	.word	0x08002a30
 8001990:	20000010 	.word	0x20000010

08001994 <HAL_TIM_Base_Start_IT>:
{
  /* Check the parameters */
  assert_param(IS_TIM_INSTANCE(htim->Instance));
  
  /* Enable the TIM Update interrupt */
  __HAL_TIM_ENABLE_IT(htim, TIM_IT_UPDATE);
 8001994:	6803      	ldr	r3, [r0, #0]
 8001996:	68da      	ldr	r2, [r3, #12]
 8001998:	f042 0201 	orr.w	r2, r2, #1
 800199c:	60da      	str	r2, [r3, #12]
      
  /* Enable the Peripheral */
  __HAL_TIM_ENABLE(htim);
 800199e:	681a      	ldr	r2, [r3, #0]
 80019a0:	f042 0201 	orr.w	r2, r2, #1
 80019a4:	601a      	str	r2, [r3, #0]
      
  /* Return function status */
  return HAL_OK;
}
 80019a6:	2000      	movs	r0, #0
 80019a8:	4770      	bx	lr

080019aa <HAL_TIM_Base_Stop_IT>:
HAL_StatusTypeDef HAL_TIM_Base_Stop_IT(TIM_HandleTypeDef *htim)
{
  /* Check the parameters */
  assert_param(IS_TIM_INSTANCE(htim->Instance));
  /* Disable the TIM Update interrupt */
  __HAL_TIM_DISABLE_IT(htim, TIM_IT_UPDATE);
 80019aa:	6803      	ldr	r3, [r0, #0]
 80019ac:	68da      	ldr	r2, [r3, #12]
 80019ae:	f022 0201 	bic.w	r2, r2, #1
 80019b2:	60da      	str	r2, [r3, #12]
      
  /* Disable the Peripheral */
  __HAL_TIM_DISABLE(htim);
 80019b4:	6a19      	ldr	r1, [r3, #32]
 80019b6:	f241 1211 	movw	r2, #4369	; 0x1111
 80019ba:	4211      	tst	r1, r2
 80019bc:	d108      	bne.n	80019d0 <HAL_TIM_Base_Stop_IT+0x26>
 80019be:	6a19      	ldr	r1, [r3, #32]
 80019c0:	f240 4244 	movw	r2, #1092	; 0x444
 80019c4:	4211      	tst	r1, r2
 80019c6:	bf02      	ittt	eq
 80019c8:	681a      	ldreq	r2, [r3, #0]
 80019ca:	f022 0201 	biceq.w	r2, r2, #1
 80019ce:	601a      	streq	r2, [r3, #0]
    
  /* Return function status */
  return HAL_OK;
}
 80019d0:	2000      	movs	r0, #0
 80019d2:	4770      	bx	lr

080019d4 <HAL_TIM_PeriodElapsedCallback>:
 80019d4:	4770      	bx	lr

080019d6 <HAL_TIM_OC_DelayElapsedCallback>:
 80019d6:	4770      	bx	lr

080019d8 <HAL_TIM_IC_CaptureCallback>:
 80019d8:	4770      	bx	lr

080019da <HAL_TIM_PWM_PulseFinishedCallback>:
 80019da:	4770      	bx	lr

080019dc <HAL_TIM_TriggerCallback>:
 80019dc:	4770      	bx	lr

080019de <HAL_TIM_IRQHandler>:
  * @retval None
  */
void HAL_TIM_IRQHandler(TIM_HandleTypeDef *htim)
{
  /* Capture compare 1 event */
  if(__HAL_TIM_GET_FLAG(htim, TIM_FLAG_CC1) != RESET)
 80019de:	6803      	ldr	r3, [r0, #0]
 80019e0:	691a      	ldr	r2, [r3, #16]
 80019e2:	0791      	lsls	r1, r2, #30
{
 80019e4:	b510      	push	{r4, lr}
 80019e6:	4604      	mov	r4, r0
  if(__HAL_TIM_GET_FLAG(htim, TIM_FLAG_CC1) != RESET)
 80019e8:	d50e      	bpl.n	8001a08 <HAL_TIM_IRQHandler+0x2a>
  {
    if(__HAL_TIM_GET_IT_SOURCE(htim, TIM_IT_CC1) !=RESET)
 80019ea:	68da      	ldr	r2, [r3, #12]
 80019ec:	0792      	lsls	r2, r2, #30
 80019ee:	d50b      	bpl.n	8001a08 <HAL_TIM_IRQHandler+0x2a>
    {
      {
        __HAL_TIM_CLEAR_IT(htim, TIM_IT_CC1);
 80019f0:	f06f 0202 	mvn.w	r2, #2
 80019f4:	611a      	str	r2, [r3, #16]
        htim->Channel = HAL_TIM_ACTIVE_CHANNEL_1;
        
        /* Input capture event */
        if((htim->Instance->CCMR1 & TIM_CCMR1_CC1S) != 0x00U)
 80019f6:	699b      	ldr	r3, [r3, #24]
        htim->Channel = HAL_TIM_ACTIVE_CHANNEL_1;
 80019f8:	2201      	movs	r2, #1
        if((htim->Instance->CCMR1 & TIM_CCMR1_CC1S) != 0x00U)
 80019fa:	079b      	lsls	r3, r3, #30
        htim->Channel = HAL_TIM_ACTIVE_CHANNEL_1;
 80019fc:	7602      	strb	r2, [r0, #24]
        if((htim->Instance->CCMR1 & TIM_CCMR1_CC1S) != 0x00U)
 80019fe:	d077      	beq.n	8001af0 <HAL_TIM_IRQHandler+0x112>
        {
          HAL_TIM_IC_CaptureCallback(htim);
 8001a00:	f7ff ffea 	bl	80019d8 <HAL_TIM_IC_CaptureCallback>
        else
        {
          HAL_TIM_OC_DelayElapsedCallback(htim);
          HAL_TIM_PWM_PulseFinishedCallback(htim);
        }
        htim->Channel = HAL_TIM_ACTIVE_CHANNEL_CLEARED;
 8001a04:	2300      	movs	r3, #0
 8001a06:	7623      	strb	r3, [r4, #24]
      }
    }
  }
  /* Capture compare 2 event */
  if(__HAL_TIM_GET_FLAG(htim, TIM_FLAG_CC2) != RESET)
 8001a08:	6823      	ldr	r3, [r4, #0]
 8001a0a:	691a      	ldr	r2, [r3, #16]
 8001a0c:	0750      	lsls	r0, r2, #29
 8001a0e:	d510      	bpl.n	8001a32 <HAL_TIM_IRQHandler+0x54>
  {
    if(__HAL_TIM_GET_IT_SOURCE(htim, TIM_IT_CC2) !=RESET)
 8001a10:	68da      	ldr	r2, [r3, #12]
 8001a12:	0751      	lsls	r1, r2, #29
 8001a14:	d50d      	bpl.n	8001a32 <HAL_TIM_IRQHandler+0x54>
    {
      __HAL_TIM_CLEAR_IT(htim, TIM_IT_CC2);
 8001a16:	f06f 0204 	mvn.w	r2, #4
 8001a1a:	611a      	str	r2, [r3, #16]
      htim->Channel = HAL_TIM_ACTIVE_CHANNEL_2;
      /* Input capture event */
      if((htim->Instance->CCMR1 & TIM_CCMR1_CC2S) != 0x00U)
 8001a1c:	699b      	ldr	r3, [r3, #24]
      htim->Channel = HAL_TIM_ACTIVE_CHANNEL_2;
 8001a1e:	2202      	movs	r2, #2
      if((htim->Instance->CCMR1 & TIM_CCMR1_CC2S) != 0x00U)
 8001a20:	f413 7f40 	tst.w	r3, #768	; 0x300
      htim->Channel = HAL_TIM_ACTIVE_CHANNEL_2;
 8001a24:	7622      	strb	r2, [r4, #24]
      {          
        HAL_TIM_IC_CaptureCallback(htim);
 8001a26:	4620      	mov	r0, r4
      if((htim->Instance->CCMR1 & TIM_CCMR1_CC2S) != 0x00U)
 8001a28:	d068      	beq.n	8001afc <HAL_TIM_IRQHandler+0x11e>
        HAL_TIM_IC_CaptureCallback(htim);
 8001a2a:	f7ff ffd5 	bl	80019d8 <HAL_TIM_IC_CaptureCallback>
      else
      {
        HAL_TIM_OC_DelayElapsedCallback(htim);
        HAL_TIM_PWM_PulseFinishedCallback(htim);
      }
      htim->Channel = HAL_TIM_ACTIVE_CHANNEL_CLEARED;
 8001a2e:	2300      	movs	r3, #0
 8001a30:	7623      	strb	r3, [r4, #24]
    }
  }
  /* Capture compare 3 event */
  if(__HAL_TIM_GET_FLAG(htim, TIM_FLAG_CC3) != RESET)
 8001a32:	6823      	ldr	r3, [r4, #0]
 8001a34:	691a      	ldr	r2, [r3, #16]
 8001a36:	0712      	lsls	r2, r2, #28
 8001a38:	d50f      	bpl.n	8001a5a <HAL_TIM_IRQHandler+0x7c>
  {
    if(__HAL_TIM_GET_IT_SOURCE(htim, TIM_IT_CC3) !=RESET)
 8001a3a:	68da      	ldr	r2, [r3, #12]
 8001a3c:	0710      	lsls	r0, r2, #28
 8001a3e:	d50c      	bpl.n	8001a5a <HAL_TIM_IRQHandler+0x7c>
    {
      __HAL_TIM_CLEAR_IT(htim, TIM_IT_CC3);
 8001a40:	f06f 0208 	mvn.w	r2, #8
 8001a44:	611a      	str	r2, [r3, #16]
      htim->Channel = HAL_TIM_ACTIVE_CHANNEL_3;
      /* Input capture event */
      if((htim->Instance->CCMR2 & TIM_CCMR2_CC3S) != 0x00U)
 8001a46:	69db      	ldr	r3, [r3, #28]
      htim->Channel = HAL_TIM_ACTIVE_CHANNEL_3;
 8001a48:	2204      	movs	r2, #4
      if((htim->Instance->CCMR2 & TIM_CCMR2_CC3S) != 0x00U)
 8001a4a:	0799      	lsls	r1, r3, #30
      htim->Channel = HAL_TIM_ACTIVE_CHANNEL_3;
 8001a4c:	7622      	strb	r2, [r4, #24]
      {          
        HAL_TIM_IC_CaptureCallback(htim);
 8001a4e:	4620      	mov	r0, r4
      if((htim->Instance->CCMR2 & TIM_CCMR2_CC3S) != 0x00U)
 8001a50:	d05a      	beq.n	8001b08 <HAL_TIM_IRQHandler+0x12a>
        HAL_TIM_IC_CaptureCallback(htim);
 8001a52:	f7ff ffc1 	bl	80019d8 <HAL_TIM_IC_CaptureCallback>
      else
      {
        HAL_TIM_OC_DelayElapsedCallback(htim);
        HAL_TIM_PWM_PulseFinishedCallback(htim); 
      }
      htim->Channel = HAL_TIM_ACTIVE_CHANNEL_CLEARED;
 8001a56:	2300      	movs	r3, #0
 8001a58:	7623      	strb	r3, [r4, #24]
    }
  }
  /* Capture compare 4 event */
  if(__HAL_TIM_GET_FLAG(htim, TIM_FLAG_CC4) != RESET)
 8001a5a:	6823      	ldr	r3, [r4, #0]
 8001a5c:	691a      	ldr	r2, [r3, #16]
 8001a5e:	06d2      	lsls	r2, r2, #27
 8001a60:	d510      	bpl.n	8001a84 <HAL_TIM_IRQHandler+0xa6>
  {
    if(__HAL_TIM_GET_IT_SOURCE(htim, TIM_IT_CC4) !=RESET)
 8001a62:	68da      	ldr	r2, [r3, #12]
 8001a64:	06d0      	lsls	r0, r2, #27
 8001a66:	d50d      	bpl.n	8001a84 <HAL_TIM_IRQHandler+0xa6>
    {
      __HAL_TIM_CLEAR_IT(htim, TIM_IT_CC4);
 8001a68:	f06f 0210 	mvn.w	r2, #16
 8001a6c:	611a      	str	r2, [r3, #16]
      htim->Channel = HAL_TIM_ACTIVE_CHANNEL_4;
      /* Input capture event */
      if((htim->Instance->CCMR2 & TIM_CCMR2_CC4S) != 0x00U)
 8001a6e:	69db      	ldr	r3, [r3, #28]
      htim->Channel = HAL_TIM_ACTIVE_CHANNEL_4;
 8001a70:	2208      	movs	r2, #8
      if((htim->Instance->CCMR2 & TIM_CCMR2_CC4S) != 0x00U)
 8001a72:	f413 7f40 	tst.w	r3, #768	; 0x300
      htim->Channel = HAL_TIM_ACTIVE_CHANNEL_4;
 8001a76:	7622      	strb	r2, [r4, #24]
      {          
        HAL_TIM_IC_CaptureCallback(htim);
 8001a78:	4620      	mov	r0, r4
      if((htim->Instance->CCMR2 & TIM_CCMR2_CC4S) != 0x00U)
 8001a7a:	d04b      	beq.n	8001b14 <HAL_TIM_IRQHandler+0x136>
        HAL_TIM_IC_CaptureCallback(htim);
 8001a7c:	f7ff ffac 	bl	80019d8 <HAL_TIM_IC_CaptureCallback>
      else
      {
        HAL_TIM_OC_DelayElapsedCallback(htim);
        HAL_TIM_PWM_PulseFinishedCallback(htim);
      }
      htim->Channel = HAL_TIM_ACTIVE_CHANNEL_CLEARED;
 8001a80:	2300      	movs	r3, #0
 8001a82:	7623      	strb	r3, [r4, #24]
    }
  }
  /* TIM Update event */
  if(__HAL_TIM_GET_FLAG(htim, TIM_FLAG_UPDATE) != RESET)
 8001a84:	6823      	ldr	r3, [r4, #0]
 8001a86:	691a      	ldr	r2, [r3, #16]
 8001a88:	07d1      	lsls	r1, r2, #31
 8001a8a:	d508      	bpl.n	8001a9e <HAL_TIM_IRQHandler+0xc0>
  {
    if(__HAL_TIM_GET_IT_SOURCE(htim, TIM_IT_UPDATE) !=RESET)
 8001a8c:	68da      	ldr	r2, [r3, #12]
 8001a8e:	07d2      	lsls	r2, r2, #31
 8001a90:	d505      	bpl.n	8001a9e <HAL_TIM_IRQHandler+0xc0>
    {
      __HAL_TIM_CLEAR_IT(htim, TIM_IT_UPDATE);
 8001a92:	f06f 0201 	mvn.w	r2, #1
 8001a96:	611a      	str	r2, [r3, #16]
      HAL_TIM_PeriodElapsedCallback(htim);
 8001a98:	4620      	mov	r0, r4
 8001a9a:	f7ff ff9b 	bl	80019d4 <HAL_TIM_PeriodElapsedCallback>
    }
  }
  /* TIM Break input event */
  if(__HAL_TIM_GET_FLAG(htim, TIM_FLAG_BREAK) != RESET)
 8001a9e:	6823      	ldr	r3, [r4, #0]
 8001aa0:	691a      	ldr	r2, [r3, #16]
 8001aa2:	0610      	lsls	r0, r2, #24
 8001aa4:	d508      	bpl.n	8001ab8 <HAL_TIM_IRQHandler+0xda>
  {
    if(__HAL_TIM_GET_IT_SOURCE(htim, TIM_IT_BREAK) !=RESET)
 8001aa6:	68da      	ldr	r2, [r3, #12]
 8001aa8:	0611      	lsls	r1, r2, #24
 8001aaa:	d505      	bpl.n	8001ab8 <HAL_TIM_IRQHandler+0xda>
    {
      __HAL_TIM_CLEAR_IT(htim, TIM_IT_BREAK);
 8001aac:	f06f 0280 	mvn.w	r2, #128	; 0x80
 8001ab0:	611a      	str	r2, [r3, #16]
      HAL_TIMEx_BreakCallback(htim);
 8001ab2:	4620      	mov	r0, r4
 8001ab4:	f000 f89d 	bl	8001bf2 <HAL_TIMEx_BreakCallback>
    }
  }
  /* TIM Trigger detection event */
  if(__HAL_TIM_GET_FLAG(htim, TIM_FLAG_TRIGGER) != RESET)
 8001ab8:	6823      	ldr	r3, [r4, #0]
 8001aba:	691a      	ldr	r2, [r3, #16]
 8001abc:	0652      	lsls	r2, r2, #25
 8001abe:	d508      	bpl.n	8001ad2 <HAL_TIM_IRQHandler+0xf4>
  {
    if(__HAL_TIM_GET_IT_SOURCE(htim, TIM_IT_TRIGGER) !=RESET)
 8001ac0:	68da      	ldr	r2, [r3, #12]
 8001ac2:	0650      	lsls	r0, r2, #25
 8001ac4:	d505      	bpl.n	8001ad2 <HAL_TIM_IRQHandler+0xf4>
    {
      __HAL_TIM_CLEAR_IT(htim, TIM_IT_TRIGGER);
 8001ac6:	f06f 0240 	mvn.w	r2, #64	; 0x40
 8001aca:	611a      	str	r2, [r3, #16]
      HAL_TIM_TriggerCallback(htim);
 8001acc:	4620      	mov	r0, r4
 8001ace:	f7ff ff85 	bl	80019dc <HAL_TIM_TriggerCallback>
    }
  }
  /* TIM commutation event */
  if(__HAL_TIM_GET_FLAG(htim, TIM_FLAG_COM) != RESET)
 8001ad2:	6823      	ldr	r3, [r4, #0]
 8001ad4:	691a      	ldr	r2, [r3, #16]
 8001ad6:	0691      	lsls	r1, r2, #26
 8001ad8:	d522      	bpl.n	8001b20 <HAL_TIM_IRQHandler+0x142>
  {
    if(__HAL_TIM_GET_IT_SOURCE(htim, TIM_IT_COM) !=RESET)
 8001ada:	68da      	ldr	r2, [r3, #12]
 8001adc:	0692      	lsls	r2, r2, #26
 8001ade:	d51f      	bpl.n	8001b20 <HAL_TIM_IRQHandler+0x142>
    {
      __HAL_TIM_CLEAR_IT(htim, TIM_FLAG_COM);
 8001ae0:	f06f 0220 	mvn.w	r2, #32
      HAL_TIMEx_CommutationCallback(htim);
 8001ae4:	4620      	mov	r0, r4
      __HAL_TIM_CLEAR_IT(htim, TIM_FLAG_COM);
 8001ae6:	611a      	str	r2, [r3, #16]
    }
  }
}
 8001ae8:	e8bd 4010 	ldmia.w	sp!, {r4, lr}
      HAL_TIMEx_CommutationCallback(htim);
 8001aec:	f000 b880 	b.w	8001bf0 <HAL_TIMEx_CommutationCallback>
          HAL_TIM_OC_DelayElapsedCallback(htim);
 8001af0:	f7ff ff71 	bl	80019d6 <HAL_TIM_OC_DelayElapsedCallback>
          HAL_TIM_PWM_PulseFinishedCallback(htim);
 8001af4:	4620      	mov	r0, r4
 8001af6:	f7ff ff70 	bl	80019da <HAL_TIM_PWM_PulseFinishedCallback>
 8001afa:	e783      	b.n	8001a04 <HAL_TIM_IRQHandler+0x26>
        HAL_TIM_OC_DelayElapsedCallback(htim);
 8001afc:	f7ff ff6b 	bl	80019d6 <HAL_TIM_OC_DelayElapsedCallback>
        HAL_TIM_PWM_PulseFinishedCallback(htim);
 8001b00:	4620      	mov	r0, r4
 8001b02:	f7ff ff6a 	bl	80019da <HAL_TIM_PWM_PulseFinishedCallback>
 8001b06:	e792      	b.n	8001a2e <HAL_TIM_IRQHandler+0x50>
        HAL_TIM_OC_DelayElapsedCallback(htim);
 8001b08:	f7ff ff65 	bl	80019d6 <HAL_TIM_OC_DelayElapsedCallback>
        HAL_TIM_PWM_PulseFinishedCallback(htim); 
 8001b0c:	4620      	mov	r0, r4
 8001b0e:	f7ff ff64 	bl	80019da <HAL_TIM_PWM_PulseFinishedCallback>
 8001b12:	e7a0      	b.n	8001a56 <HAL_TIM_IRQHandler+0x78>
        HAL_TIM_OC_DelayElapsedCallback(htim);
 8001b14:	f7ff ff5f 	bl	80019d6 <HAL_TIM_OC_DelayElapsedCallback>
        HAL_TIM_PWM_PulseFinishedCallback(htim);
 8001b18:	4620      	mov	r0, r4
 8001b1a:	f7ff ff5e 	bl	80019da <HAL_TIM_PWM_PulseFinishedCallback>
 8001b1e:	e7af      	b.n	8001a80 <HAL_TIM_IRQHandler+0xa2>
 8001b20:	bd10      	pop	{r4, pc}
	...

08001b24 <TIM_Base_SetConfig>:
{
  uint32_t tmpcr1 = 0U;
  tmpcr1 = TIMx->CR1;
  
  /* Set TIM Time Base Unit parameters ---------------------------------------*/
  if(IS_TIM_CC3_INSTANCE(TIMx) != RESET)   
 8001b24:	4a22      	ldr	r2, [pc, #136]	; (8001bb0 <TIM_Base_SetConfig+0x8c>)
  tmpcr1 = TIMx->CR1;
 8001b26:	6803      	ldr	r3, [r0, #0]
  if(IS_TIM_CC3_INSTANCE(TIMx) != RESET)   
 8001b28:	4290      	cmp	r0, r2
 8001b2a:	d00e      	beq.n	8001b4a <TIM_Base_SetConfig+0x26>
 8001b2c:	f1b0 4f80 	cmp.w	r0, #1073741824	; 0x40000000
 8001b30:	d00b      	beq.n	8001b4a <TIM_Base_SetConfig+0x26>
 8001b32:	f5a2 427c 	sub.w	r2, r2, #64512	; 0xfc00
 8001b36:	4290      	cmp	r0, r2
 8001b38:	d007      	beq.n	8001b4a <TIM_Base_SetConfig+0x26>
 8001b3a:	f502 6280 	add.w	r2, r2, #1024	; 0x400
 8001b3e:	4290      	cmp	r0, r2
 8001b40:	d003      	beq.n	8001b4a <TIM_Base_SetConfig+0x26>
 8001b42:	f502 6280 	add.w	r2, r2, #1024	; 0x400
 8001b46:	4290      	cmp	r0, r2
 8001b48:	d119      	bne.n	8001b7e <TIM_Base_SetConfig+0x5a>
  {
    /* Select the Counter Mode */
    tmpcr1 &= ~(TIM_CR1_DIR | TIM_CR1_CMS);
    tmpcr1 |= Structure->CounterMode;
 8001b4a:	684a      	ldr	r2, [r1, #4]
    tmpcr1 &= ~(TIM_CR1_DIR | TIM_CR1_CMS);
 8001b4c:	f023 0370 	bic.w	r3, r3, #112	; 0x70
    tmpcr1 |= Structure->CounterMode;
 8001b50:	4313      	orrs	r3, r2
  }
 
  if(IS_TIM_CC1_INSTANCE(TIMx) != RESET)  
 8001b52:	4a17      	ldr	r2, [pc, #92]	; (8001bb0 <TIM_Base_SetConfig+0x8c>)
 8001b54:	4290      	cmp	r0, r2
 8001b56:	d104      	bne.n	8001b62 <TIM_Base_SetConfig+0x3e>
  {
    /* Set the clock division */
    tmpcr1 &= ~TIM_CR1_CKD;
    tmpcr1 |= (uint32_t)Structure->ClockDivision;
 8001b58:	68ca      	ldr	r2, [r1, #12]
    tmpcr1 &= ~TIM_CR1_CKD;
 8001b5a:	f423 7340 	bic.w	r3, r3, #768	; 0x300
    tmpcr1 |= (uint32_t)Structure->ClockDivision;
 8001b5e:	4313      	orrs	r3, r2
 8001b60:	e018      	b.n	8001b94 <TIM_Base_SetConfig+0x70>
  if(IS_TIM_CC1_INSTANCE(TIMx) != RESET)  
 8001b62:	f1b0 4f80 	cmp.w	r0, #1073741824	; 0x40000000
 8001b66:	d0f7      	beq.n	8001b58 <TIM_Base_SetConfig+0x34>
 8001b68:	4a12      	ldr	r2, [pc, #72]	; (8001bb4 <TIM_Base_SetConfig+0x90>)
 8001b6a:	4290      	cmp	r0, r2
 8001b6c:	d0f4      	beq.n	8001b58 <TIM_Base_SetConfig+0x34>
 8001b6e:	f502 6280 	add.w	r2, r2, #1024	; 0x400
 8001b72:	4290      	cmp	r0, r2
 8001b74:	d0f0      	beq.n	8001b58 <TIM_Base_SetConfig+0x34>
 8001b76:	f502 6280 	add.w	r2, r2, #1024	; 0x400
 8001b7a:	4290      	cmp	r0, r2
 8001b7c:	d0ec      	beq.n	8001b58 <TIM_Base_SetConfig+0x34>
 8001b7e:	4a0e      	ldr	r2, [pc, #56]	; (8001bb8 <TIM_Base_SetConfig+0x94>)
 8001b80:	4290      	cmp	r0, r2
 8001b82:	d0e9      	beq.n	8001b58 <TIM_Base_SetConfig+0x34>
 8001b84:	f502 6280 	add.w	r2, r2, #1024	; 0x400
 8001b88:	4290      	cmp	r0, r2
 8001b8a:	d0e5      	beq.n	8001b58 <TIM_Base_SetConfig+0x34>
 8001b8c:	f502 6280 	add.w	r2, r2, #1024	; 0x400
 8001b90:	4290      	cmp	r0, r2
 8001b92:	d0e1      	beq.n	8001b58 <TIM_Base_SetConfig+0x34>
  }

  TIMx->CR1 = tmpcr1;
 8001b94:	6003      	str	r3, [r0, #0]

  /* Set the Auto-reload value */
  TIMx->ARR = (uint32_t)Structure->Period ;
 8001b96:	688b      	ldr	r3, [r1, #8]
 8001b98:	62c3      	str	r3, [r0, #44]	; 0x2c
 
  /* Set the Prescaler value */
  TIMx->PSC = (uint32_t)Structure->Prescaler;
 8001b9a:	680b      	ldr	r3, [r1, #0]
 8001b9c:	6283      	str	r3, [r0, #40]	; 0x28
    
  if(IS_TIM_ADVANCED_INSTANCE(TIMx) != RESET)  
 8001b9e:	4b04      	ldr	r3, [pc, #16]	; (8001bb0 <TIM_Base_SetConfig+0x8c>)
 8001ba0:	4298      	cmp	r0, r3
  {
    /* Set the Repetition Counter value */
    TIMx->RCR = Structure->RepetitionCounter;
 8001ba2:	bf04      	itt	eq
 8001ba4:	690b      	ldreq	r3, [r1, #16]
 8001ba6:	6303      	streq	r3, [r0, #48]	; 0x30
  }

  /* Generate an update event to reload the Prescaler 
     and the repetition counter(only for TIM1 and TIM8) value immediately */
  TIMx->EGR = TIM_EGR_UG;
 8001ba8:	2301      	movs	r3, #1
 8001baa:	6143      	str	r3, [r0, #20]
}
 8001bac:	4770      	bx	lr
 8001bae:	bf00      	nop
 8001bb0:	40010000 	.word	0x40010000
 8001bb4:	40000400 	.word	0x40000400
 8001bb8:	40014000 	.word	0x40014000

08001bbc <HAL_TIM_Base_Init>:
{ 
 8001bbc:	b510      	push	{r4, lr}
  if(htim == NULL)
 8001bbe:	4604      	mov	r4, r0
 8001bc0:	b1a0      	cbz	r0, 8001bec <HAL_TIM_Base_Init+0x30>
  if(htim->State == HAL_TIM_STATE_RESET)
 8001bc2:	f890 3039 	ldrb.w	r3, [r0, #57]	; 0x39
 8001bc6:	f003 02ff 	and.w	r2, r3, #255	; 0xff
 8001bca:	b91b      	cbnz	r3, 8001bd4 <HAL_TIM_Base_Init+0x18>
    htim->Lock = HAL_UNLOCKED;
 8001bcc:	f880 2038 	strb.w	r2, [r0, #56]	; 0x38
    HAL_TIM_Base_MspInit(htim);
 8001bd0:	f000 fdc0 	bl	8002754 <HAL_TIM_Base_MspInit>
  htim->State= HAL_TIM_STATE_BUSY;
 8001bd4:	2302      	movs	r3, #2
 8001bd6:	f884 3039 	strb.w	r3, [r4, #57]	; 0x39
  TIM_Base_SetConfig(htim->Instance, &htim->Init); 
 8001bda:	6820      	ldr	r0, [r4, #0]
 8001bdc:	1d21      	adds	r1, r4, #4
 8001bde:	f7ff ffa1 	bl	8001b24 <TIM_Base_SetConfig>
  htim->State= HAL_TIM_STATE_READY;
 8001be2:	2301      	movs	r3, #1
 8001be4:	f884 3039 	strb.w	r3, [r4, #57]	; 0x39
  return HAL_OK;
 8001be8:	2000      	movs	r0, #0
 8001bea:	bd10      	pop	{r4, pc}
    return HAL_ERROR;
 8001bec:	2001      	movs	r0, #1
}
 8001bee:	bd10      	pop	{r4, pc}

08001bf0 <HAL_TIMEx_CommutationCallback>:
 8001bf0:	4770      	bx	lr

08001bf2 <HAL_TIMEx_BreakCallback>:
  * @param  htim pointer to a TIM_HandleTypeDef structure that contains
  *                the configuration information for TIM module.
  * @retval None
  */
__weak void HAL_TIMEx_BreakCallback(TIM_HandleTypeDef *htim)
{
 8001bf2:	4770      	bx	lr

08001bf4 <UART_SetConfig>:
  * @param  huart pointer to a UART_HandleTypeDef structure that contains
  *                the configuration information for the specified UART module.
  * @retval None
  */
static void UART_SetConfig(UART_HandleTypeDef *huart)
{
 8001bf4:	e92d 47f0 	stmdb	sp!, {r4, r5, r6, r7, r8, r9, sl, lr}
  assert_param(IS_UART_STOPBITS(huart->Init.StopBits));
  assert_param(IS_UART_PARITY(huart->Init.Parity));
  assert_param(IS_UART_MODE(huart->Init.Mode));

  /*-------------------------- USART CR2 Configuration -----------------------*/
  tmpreg = huart->Instance->CR2;
 8001bf8:	6806      	ldr	r6, [r0, #0]

  /* Clear STOP[13:12] bits */
  tmpreg &= (uint32_t)~((uint32_t)USART_CR2_STOP);

  /* Configure the UART Stop Bits: Set STOP[13:12] bits according to huart->Init.StopBits value */
  tmpreg |= (uint32_t)huart->Init.StopBits;
 8001bfa:	68c2      	ldr	r2, [r0, #12]
  tmpreg = huart->Instance->CR2;
 8001bfc:	6933      	ldr	r3, [r6, #16]
  /* Configure the UART Word Length, Parity and mode: 
     Set the M bits according to huart->Init.WordLength value 
     Set PCE and PS bits according to huart->Init.Parity value
     Set TE and RE bits according to huart->Init.Mode value
     Set OVER8 bit according to huart->Init.OverSampling value */
  tmpreg |= (uint32_t)huart->Init.WordLength | huart->Init.Parity | huart->Init.Mode | huart->Init.OverSampling;
 8001bfe:	69c1      	ldr	r1, [r0, #28]
  tmpreg &= (uint32_t)~((uint32_t)USART_CR2_STOP);
 8001c00:	f423 5340 	bic.w	r3, r3, #12288	; 0x3000
  tmpreg |= (uint32_t)huart->Init.StopBits;
 8001c04:	4313      	orrs	r3, r2
  WRITE_REG(huart->Instance->CR2, (uint32_t)tmpreg);
 8001c06:	6133      	str	r3, [r6, #16]
{
 8001c08:	4604      	mov	r4, r0
  tmpreg |= (uint32_t)huart->Init.WordLength | huart->Init.Parity | huart->Init.Mode | huart->Init.OverSampling;
 8001c0a:	6883      	ldr	r3, [r0, #8]
 8001c0c:	6900      	ldr	r0, [r0, #16]
  tmpreg = huart->Instance->CR1;
 8001c0e:	68f2      	ldr	r2, [r6, #12]
  tmpreg |= (uint32_t)huart->Init.WordLength | huart->Init.Parity | huart->Init.Mode | huart->Init.OverSampling;
 8001c10:	4303      	orrs	r3, r0
 8001c12:	6960      	ldr	r0, [r4, #20]
  tmpreg &= (uint32_t)~((uint32_t)(USART_CR1_M | USART_CR1_PCE | USART_CR1_PS | USART_CR1_TE | \
 8001c14:	f422 4216 	bic.w	r2, r2, #38400	; 0x9600
  tmpreg |= (uint32_t)huart->Init.WordLength | huart->Init.Parity | huart->Init.Mode | huart->Init.OverSampling;
 8001c18:	4303      	orrs	r3, r0
  tmpreg &= (uint32_t)~((uint32_t)(USART_CR1_M | USART_CR1_PCE | USART_CR1_PS | USART_CR1_TE | \
 8001c1a:	f022 020c 	bic.w	r2, r2, #12
  tmpreg |= (uint32_t)huart->Init.WordLength | huart->Init.Parity | huart->Init.Mode | huart->Init.OverSampling;
 8001c1e:	430b      	orrs	r3, r1
 8001c20:	4313      	orrs	r3, r2
  
  /* Write to USART CR1 */
  WRITE_REG(huart->Instance->CR1, (uint32_t)tmpreg);
 8001c22:	60f3      	str	r3, [r6, #12]
  
  /*-------------------------- USART CR3 Configuration -----------------------*/  
  tmpreg = huart->Instance->CR3;
 8001c24:	6973      	ldr	r3, [r6, #20]
  
  /* Clear CTSE and RTSE bits */
  tmpreg &= (uint32_t)~((uint32_t)(USART_CR3_RTSE | USART_CR3_CTSE));
  
  /* Configure the UART HFC: Set CTSE and RTSE bits according to huart->Init.HwFlowCtl value */
  tmpreg |= huart->Init.HwFlowCtl;
 8001c26:	69a2      	ldr	r2, [r4, #24]
  tmpreg &= (uint32_t)~((uint32_t)(USART_CR3_RTSE | USART_CR3_CTSE));
 8001c28:	f423 7340 	bic.w	r3, r3, #768	; 0x300
  tmpreg |= huart->Init.HwFlowCtl;
 8001c2c:	4313      	orrs	r3, r2
  
  /* Write to USART CR3 */
  WRITE_REG(huart->Instance->CR3, (uint32_t)tmpreg);
  
  /* Check the Over Sampling */
  if(huart->Init.OverSampling == UART_OVERSAMPLING_8)
 8001c2e:	f5b1 4f00 	cmp.w	r1, #32768	; 0x8000
  WRITE_REG(huart->Instance->CR3, (uint32_t)tmpreg);
 8001c32:	6173      	str	r3, [r6, #20]
 8001c34:	4b7a      	ldr	r3, [pc, #488]	; (8001e20 <UART_SetConfig+0x22c>)
  if(huart->Init.OverSampling == UART_OVERSAMPLING_8)
 8001c36:	d17c      	bne.n	8001d32 <UART_SetConfig+0x13e>
  {
    /*-------------------------- USART BRR Configuration ---------------------*/
#if defined(USART6) 
    if((huart->Instance == USART1) || (huart->Instance == USART6))
 8001c38:	429e      	cmp	r6, r3
 8001c3a:	d003      	beq.n	8001c44 <UART_SetConfig+0x50>
 8001c3c:	f503 6380 	add.w	r3, r3, #1024	; 0x400
 8001c40:	429e      	cmp	r6, r3
 8001c42:	d144      	bne.n	8001cce <UART_SetConfig+0xda>
    {
      huart->Instance->BRR = UART_BRR_SAMPLING8(HAL_RCC_GetPCLK2Freq(), huart->Init.BaudRate);
 8001c44:	f7ff fe96 	bl	8001974 <HAL_RCC_GetPCLK2Freq>
 8001c48:	2519      	movs	r5, #25
 8001c4a:	fb05 f300 	mul.w	r3, r5, r0
 8001c4e:	6860      	ldr	r0, [r4, #4]
 8001c50:	f04f 0964 	mov.w	r9, #100	; 0x64
 8001c54:	0040      	lsls	r0, r0, #1
 8001c56:	fbb3 f3f0 	udiv	r3, r3, r0
 8001c5a:	fbb3 f3f9 	udiv	r3, r3, r9
 8001c5e:	ea4f 1803 	mov.w	r8, r3, lsl #4
 8001c62:	f7ff fe87 	bl	8001974 <HAL_RCC_GetPCLK2Freq>
 8001c66:	6863      	ldr	r3, [r4, #4]
 8001c68:	4368      	muls	r0, r5
 8001c6a:	005b      	lsls	r3, r3, #1
 8001c6c:	fbb0 f7f3 	udiv	r7, r0, r3
 8001c70:	f7ff fe80 	bl	8001974 <HAL_RCC_GetPCLK2Freq>
 8001c74:	6863      	ldr	r3, [r4, #4]
 8001c76:	4368      	muls	r0, r5
 8001c78:	005b      	lsls	r3, r3, #1
 8001c7a:	fbb0 f3f3 	udiv	r3, r0, r3
 8001c7e:	fbb3 f3f9 	udiv	r3, r3, r9
 8001c82:	fb09 7313 	mls	r3, r9, r3, r7
 8001c86:	00db      	lsls	r3, r3, #3
 8001c88:	3332      	adds	r3, #50	; 0x32
 8001c8a:	fbb3 f3f9 	udiv	r3, r3, r9
 8001c8e:	005b      	lsls	r3, r3, #1
 8001c90:	f403 77f8 	and.w	r7, r3, #496	; 0x1f0
 8001c94:	f7ff fe6e 	bl	8001974 <HAL_RCC_GetPCLK2Freq>
 8001c98:	6862      	ldr	r2, [r4, #4]
 8001c9a:	4368      	muls	r0, r5
 8001c9c:	0052      	lsls	r2, r2, #1
 8001c9e:	fbb0 faf2 	udiv	sl, r0, r2
 8001ca2:	f7ff fe67 	bl	8001974 <HAL_RCC_GetPCLK2Freq>
      huart->Instance->BRR = UART_BRR_SAMPLING8(HAL_RCC_GetPCLK2Freq(), huart->Init.BaudRate);
    }	
#endif /* USART6 */
    else
    {
      huart->Instance->BRR = UART_BRR_SAMPLING8(HAL_RCC_GetPCLK1Freq(), huart->Init.BaudRate);
 8001ca6:	6863      	ldr	r3, [r4, #4]
 8001ca8:	4368      	muls	r0, r5
 8001caa:	005b      	lsls	r3, r3, #1
 8001cac:	fbb0 f3f3 	udiv	r3, r0, r3
 8001cb0:	fbb3 f3f9 	udiv	r3, r3, r9
 8001cb4:	fb09 a313 	mls	r3, r9, r3, sl
 8001cb8:	00db      	lsls	r3, r3, #3
 8001cba:	3332      	adds	r3, #50	; 0x32
 8001cbc:	fbb3 f3f9 	udiv	r3, r3, r9
 8001cc0:	f003 0307 	and.w	r3, r3, #7
 8001cc4:	4443      	add	r3, r8
      huart->Instance->BRR = UART_BRR_SAMPLING16(HAL_RCC_GetPCLK2Freq(), huart->Init.BaudRate);
    }	
#endif /* USART6 */
    else
    {
      huart->Instance->BRR = UART_BRR_SAMPLING16(HAL_RCC_GetPCLK1Freq(), huart->Init.BaudRate);
 8001cc6:	443b      	add	r3, r7
 8001cc8:	60b3      	str	r3, [r6, #8]
 8001cca:	e8bd 87f0 	ldmia.w	sp!, {r4, r5, r6, r7, r8, r9, sl, pc}
      huart->Instance->BRR = UART_BRR_SAMPLING8(HAL_RCC_GetPCLK1Freq(), huart->Init.BaudRate);
 8001cce:	f7ff fe41 	bl	8001954 <HAL_RCC_GetPCLK1Freq>
 8001cd2:	2519      	movs	r5, #25
 8001cd4:	fb05 f300 	mul.w	r3, r5, r0
 8001cd8:	6860      	ldr	r0, [r4, #4]
 8001cda:	f04f 0964 	mov.w	r9, #100	; 0x64
 8001cde:	0040      	lsls	r0, r0, #1
 8001ce0:	fbb3 f3f0 	udiv	r3, r3, r0
 8001ce4:	fbb3 f3f9 	udiv	r3, r3, r9
 8001ce8:	ea4f 1803 	mov.w	r8, r3, lsl #4
 8001cec:	f7ff fe32 	bl	8001954 <HAL_RCC_GetPCLK1Freq>
 8001cf0:	6863      	ldr	r3, [r4, #4]
 8001cf2:	4368      	muls	r0, r5
 8001cf4:	005b      	lsls	r3, r3, #1
 8001cf6:	fbb0 f7f3 	udiv	r7, r0, r3
 8001cfa:	f7ff fe2b 	bl	8001954 <HAL_RCC_GetPCLK1Freq>
 8001cfe:	6863      	ldr	r3, [r4, #4]
 8001d00:	4368      	muls	r0, r5
 8001d02:	005b      	lsls	r3, r3, #1
 8001d04:	fbb0 f3f3 	udiv	r3, r0, r3
 8001d08:	fbb3 f3f9 	udiv	r3, r3, r9
 8001d0c:	fb09 7313 	mls	r3, r9, r3, r7
 8001d10:	00db      	lsls	r3, r3, #3
 8001d12:	3332      	adds	r3, #50	; 0x32
 8001d14:	fbb3 f3f9 	udiv	r3, r3, r9
 8001d18:	005b      	lsls	r3, r3, #1
 8001d1a:	f403 77f8 	and.w	r7, r3, #496	; 0x1f0
 8001d1e:	f7ff fe19 	bl	8001954 <HAL_RCC_GetPCLK1Freq>
 8001d22:	6862      	ldr	r2, [r4, #4]
 8001d24:	4368      	muls	r0, r5
 8001d26:	0052      	lsls	r2, r2, #1
 8001d28:	fbb0 faf2 	udiv	sl, r0, r2
 8001d2c:	f7ff fe12 	bl	8001954 <HAL_RCC_GetPCLK1Freq>
 8001d30:	e7b9      	b.n	8001ca6 <UART_SetConfig+0xb2>
    if((huart->Instance == USART1) || (huart->Instance == USART6))
 8001d32:	429e      	cmp	r6, r3
 8001d34:	d002      	beq.n	8001d3c <UART_SetConfig+0x148>
 8001d36:	4b3b      	ldr	r3, [pc, #236]	; (8001e24 <UART_SetConfig+0x230>)
 8001d38:	429e      	cmp	r6, r3
 8001d3a:	d140      	bne.n	8001dbe <UART_SetConfig+0x1ca>
      huart->Instance->BRR = UART_BRR_SAMPLING16(HAL_RCC_GetPCLK2Freq(), huart->Init.BaudRate);
 8001d3c:	f7ff fe1a 	bl	8001974 <HAL_RCC_GetPCLK2Freq>
 8001d40:	6867      	ldr	r7, [r4, #4]
 8001d42:	2519      	movs	r5, #25
 8001d44:	f04f 0964 	mov.w	r9, #100	; 0x64
 8001d48:	fb05 f300 	mul.w	r3, r5, r0
 8001d4c:	00bf      	lsls	r7, r7, #2
 8001d4e:	fbb3 f3f7 	udiv	r3, r3, r7
 8001d52:	fbb3 f3f9 	udiv	r3, r3, r9
 8001d56:	011f      	lsls	r7, r3, #4
 8001d58:	f7ff fe0c 	bl	8001974 <HAL_RCC_GetPCLK2Freq>
 8001d5c:	6863      	ldr	r3, [r4, #4]
 8001d5e:	4368      	muls	r0, r5
 8001d60:	009b      	lsls	r3, r3, #2
 8001d62:	fbb0 f8f3 	udiv	r8, r0, r3
 8001d66:	f7ff fe05 	bl	8001974 <HAL_RCC_GetPCLK2Freq>
 8001d6a:	6863      	ldr	r3, [r4, #4]
 8001d6c:	4368      	muls	r0, r5
 8001d6e:	009b      	lsls	r3, r3, #2
 8001d70:	fbb0 f3f3 	udiv	r3, r0, r3
 8001d74:	fbb3 f3f9 	udiv	r3, r3, r9
 8001d78:	fb09 8313 	mls	r3, r9, r3, r8
 8001d7c:	011b      	lsls	r3, r3, #4
 8001d7e:	3332      	adds	r3, #50	; 0x32
 8001d80:	fbb3 f3f9 	udiv	r3, r3, r9
 8001d84:	f003 08f0 	and.w	r8, r3, #240	; 0xf0
 8001d88:	f7ff fdf4 	bl	8001974 <HAL_RCC_GetPCLK2Freq>
 8001d8c:	6862      	ldr	r2, [r4, #4]
 8001d8e:	4368      	muls	r0, r5
 8001d90:	0092      	lsls	r2, r2, #2
 8001d92:	fbb0 faf2 	udiv	sl, r0, r2
 8001d96:	f7ff fded 	bl	8001974 <HAL_RCC_GetPCLK2Freq>
      huart->Instance->BRR = UART_BRR_SAMPLING16(HAL_RCC_GetPCLK1Freq(), huart->Init.BaudRate);
 8001d9a:	6863      	ldr	r3, [r4, #4]
 8001d9c:	4368      	muls	r0, r5
 8001d9e:	009b      	lsls	r3, r3, #2
 8001da0:	fbb0 f3f3 	udiv	r3, r0, r3
 8001da4:	fbb3 f3f9 	udiv	r3, r3, r9
 8001da8:	fb09 a313 	mls	r3, r9, r3, sl
 8001dac:	011b      	lsls	r3, r3, #4
 8001dae:	3332      	adds	r3, #50	; 0x32
 8001db0:	fbb3 f3f9 	udiv	r3, r3, r9
 8001db4:	f003 030f 	and.w	r3, r3, #15
 8001db8:	ea43 0308 	orr.w	r3, r3, r8
 8001dbc:	e783      	b.n	8001cc6 <UART_SetConfig+0xd2>
 8001dbe:	f7ff fdc9 	bl	8001954 <HAL_RCC_GetPCLK1Freq>
 8001dc2:	6867      	ldr	r7, [r4, #4]
 8001dc4:	2519      	movs	r5, #25
 8001dc6:	f04f 0964 	mov.w	r9, #100	; 0x64
 8001dca:	fb05 f300 	mul.w	r3, r5, r0
 8001dce:	00bf      	lsls	r7, r7, #2
 8001dd0:	fbb3 f3f7 	udiv	r3, r3, r7
 8001dd4:	fbb3 f3f9 	udiv	r3, r3, r9
 8001dd8:	011f      	lsls	r7, r3, #4
 8001dda:	f7ff fdbb 	bl	8001954 <HAL_RCC_GetPCLK1Freq>
 8001dde:	6863      	ldr	r3, [r4, #4]
 8001de0:	4368      	muls	r0, r5
 8001de2:	009b      	lsls	r3, r3, #2
 8001de4:	fbb0 f8f3 	udiv	r8, r0, r3
 8001de8:	f7ff fdb4 	bl	8001954 <HAL_RCC_GetPCLK1Freq>
 8001dec:	6863      	ldr	r3, [r4, #4]
 8001dee:	4368      	muls	r0, r5
 8001df0:	009b      	lsls	r3, r3, #2
 8001df2:	fbb0 f3f3 	udiv	r3, r0, r3
 8001df6:	fbb3 f3f9 	udiv	r3, r3, r9
 8001dfa:	fb09 8313 	mls	r3, r9, r3, r8
 8001dfe:	011b      	lsls	r3, r3, #4
 8001e00:	3332      	adds	r3, #50	; 0x32
 8001e02:	fbb3 f3f9 	udiv	r3, r3, r9
 8001e06:	f003 08f0 	and.w	r8, r3, #240	; 0xf0
 8001e0a:	f7ff fda3 	bl	8001954 <HAL_RCC_GetPCLK1Freq>
 8001e0e:	6862      	ldr	r2, [r4, #4]
 8001e10:	4368      	muls	r0, r5
 8001e12:	0092      	lsls	r2, r2, #2
 8001e14:	fbb0 faf2 	udiv	sl, r0, r2
 8001e18:	f7ff fd9c 	bl	8001954 <HAL_RCC_GetPCLK1Freq>
 8001e1c:	e7bd      	b.n	8001d9a <UART_SetConfig+0x1a6>
 8001e1e:	bf00      	nop
 8001e20:	40011000 	.word	0x40011000
 8001e24:	40011400 	.word	0x40011400

08001e28 <HAL_UART_Init>:
{
 8001e28:	b510      	push	{r4, lr}
  if(huart == NULL)
 8001e2a:	4604      	mov	r4, r0
 8001e2c:	b340      	cbz	r0, 8001e80 <HAL_UART_Init+0x58>
  if(huart->gState == HAL_UART_STATE_RESET)
 8001e2e:	f890 3039 	ldrb.w	r3, [r0, #57]	; 0x39
 8001e32:	f003 02ff 	and.w	r2, r3, #255	; 0xff
 8001e36:	b91b      	cbnz	r3, 8001e40 <HAL_UART_Init+0x18>
    huart->Lock = HAL_UNLOCKED;
 8001e38:	f880 2038 	strb.w	r2, [r0, #56]	; 0x38
    HAL_UART_MspInit(huart);
 8001e3c:	f000 fcc0 	bl	80027c0 <HAL_UART_MspInit>
  __HAL_UART_DISABLE(huart);
 8001e40:	6822      	ldr	r2, [r4, #0]
  huart->gState = HAL_UART_STATE_BUSY;
 8001e42:	2324      	movs	r3, #36	; 0x24
 8001e44:	f884 3039 	strb.w	r3, [r4, #57]	; 0x39
  __HAL_UART_DISABLE(huart);
 8001e48:	68d3      	ldr	r3, [r2, #12]
 8001e4a:	f423 5300 	bic.w	r3, r3, #8192	; 0x2000
 8001e4e:	60d3      	str	r3, [r2, #12]
  UART_SetConfig(huart);
 8001e50:	4620      	mov	r0, r4
 8001e52:	f7ff fecf 	bl	8001bf4 <UART_SetConfig>
  CLEAR_BIT(huart->Instance->CR2, (USART_CR2_LINEN | USART_CR2_CLKEN));
 8001e56:	6823      	ldr	r3, [r4, #0]
 8001e58:	691a      	ldr	r2, [r3, #16]
 8001e5a:	f422 4290 	bic.w	r2, r2, #18432	; 0x4800
 8001e5e:	611a      	str	r2, [r3, #16]
  CLEAR_BIT(huart->Instance->CR3, (USART_CR3_SCEN | USART_CR3_HDSEL | USART_CR3_IREN));
 8001e60:	695a      	ldr	r2, [r3, #20]
 8001e62:	f022 022a 	bic.w	r2, r2, #42	; 0x2a
 8001e66:	615a      	str	r2, [r3, #20]
  __HAL_UART_ENABLE(huart);
 8001e68:	68da      	ldr	r2, [r3, #12]
 8001e6a:	f442 5200 	orr.w	r2, r2, #8192	; 0x2000
 8001e6e:	60da      	str	r2, [r3, #12]
  huart->ErrorCode = HAL_UART_ERROR_NONE;
 8001e70:	2000      	movs	r0, #0
  huart->gState= HAL_UART_STATE_READY;
 8001e72:	2320      	movs	r3, #32
  huart->ErrorCode = HAL_UART_ERROR_NONE;
 8001e74:	63e0      	str	r0, [r4, #60]	; 0x3c
  huart->gState= HAL_UART_STATE_READY;
 8001e76:	f884 3039 	strb.w	r3, [r4, #57]	; 0x39
  huart->RxState= HAL_UART_STATE_READY;
 8001e7a:	f884 303a 	strb.w	r3, [r4, #58]	; 0x3a
  return HAL_OK;
 8001e7e:	bd10      	pop	{r4, pc}
    return HAL_ERROR;
 8001e80:	2001      	movs	r0, #1
}
 8001e82:	bd10      	pop	{r4, pc}

08001e84 <TextLCD_Strobe>:
void TextLCD_Data(TextLCDType *lcd, uint8_t data);



void TextLCD_Strobe(TextLCDType *lcd) // Enables the E-pin to write things
{
 8001e84:	b510      	push	{r4, lr}
 8001e86:	4604      	mov	r4, r0
	delay_us(40);
 8001e88:	2028      	movs	r0, #40	; 0x28
 8001e8a:	f000 f8d3 	bl	8002034 <delay_us>
	HAL_GPIO_WritePin(lcd->controlPort, lcd->strbPin, 1);
 8001e8e:	89e1      	ldrh	r1, [r4, #14]
 8001e90:	6860      	ldr	r0, [r4, #4]
 8001e92:	2201      	movs	r2, #1
 8001e94:	f7ff fb08 	bl	80014a8 <HAL_GPIO_WritePin>
	delay_us(40);
 8001e98:	2028      	movs	r0, #40	; 0x28
 8001e9a:	f000 f8cb 	bl	8002034 <delay_us>
	HAL_GPIO_WritePin(lcd->controlPort, lcd->strbPin, 0);
 8001e9e:	6860      	ldr	r0, [r4, #4]
 8001ea0:	89e1      	ldrh	r1, [r4, #14]
 8001ea2:	2200      	movs	r2, #0
 8001ea4:	f7ff fb00 	bl	80014a8 <HAL_GPIO_WritePin>
	delay_us(40);
 8001ea8:	2028      	movs	r0, #40	; 0x28
}
 8001eaa:	e8bd 4010 	ldmia.w	sp!, {r4, lr}
	delay_us(40);
 8001eae:	f000 b8c1 	b.w	8002034 <delay_us>

08001eb2 <TextLCD_Cmd>:
void TextLCD_Cmd(TextLCDType *lcd, uint8_t cmd) // Runs your command(bit-pattern)
{
 8001eb2:	b538      	push	{r3, r4, r5, lr}
	HAL_GPIO_WritePin(lcd->controlPort, lcd->rsPin | lcd->rwPin, 0);
 8001eb4:	8a03      	ldrh	r3, [r0, #16]
{
 8001eb6:	460d      	mov	r5, r1
	HAL_GPIO_WritePin(lcd->controlPort, lcd->rsPin | lcd->rwPin, 0);
 8001eb8:	8981      	ldrh	r1, [r0, #12]
{
 8001eba:	4604      	mov	r4, r0
	HAL_GPIO_WritePin(lcd->controlPort, lcd->rsPin | lcd->rwPin, 0);
 8001ebc:	4319      	orrs	r1, r3
 8001ebe:	2200      	movs	r2, #0
 8001ec0:	6840      	ldr	r0, [r0, #4]
 8001ec2:	b289      	uxth	r1, r1
 8001ec4:	f7ff faf0 	bl	80014a8 <HAL_GPIO_WritePin>
	lcd->dataPort->ODR &=~ 0xff;
 8001ec8:	68a3      	ldr	r3, [r4, #8]
 8001eca:	695a      	ldr	r2, [r3, #20]
 8001ecc:	f022 02ff 	bic.w	r2, r2, #255	; 0xff
 8001ed0:	615a      	str	r2, [r3, #20]
	lcd->dataPort->ODR |= cmd;
 8001ed2:	695a      	ldr	r2, [r3, #20]
 8001ed4:	4315      	orrs	r5, r2
 8001ed6:	615d      	str	r5, [r3, #20]

	TextLCD_Strobe(lcd);
 8001ed8:	4620      	mov	r0, r4
}
 8001eda:	e8bd 4038 	ldmia.w	sp!, {r3, r4, r5, lr}
	TextLCD_Strobe(lcd);
 8001ede:	f7ff bfd1 	b.w	8001e84 <TextLCD_Strobe>

08001ee2 <TextLCD_Data>:
void TextLCD_Data(TextLCDType *lcd, uint8_t data) // Sends a bit-pattern on the databus.
{
 8001ee2:	b538      	push	{r3, r4, r5, lr}
 8001ee4:	4604      	mov	r4, r0
 8001ee6:	460d      	mov	r5, r1
	HAL_GPIO_WritePin(lcd->controlPort, lcd->rsPin, 1);
 8001ee8:	2201      	movs	r2, #1
 8001eea:	8981      	ldrh	r1, [r0, #12]
 8001eec:	6840      	ldr	r0, [r0, #4]
 8001eee:	f7ff fadb 	bl	80014a8 <HAL_GPIO_WritePin>
	HAL_GPIO_WritePin(lcd->controlPort, lcd->rwPin, 0);
 8001ef2:	6860      	ldr	r0, [r4, #4]
 8001ef4:	8a21      	ldrh	r1, [r4, #16]
 8001ef6:	2200      	movs	r2, #0
 8001ef8:	f7ff fad6 	bl	80014a8 <HAL_GPIO_WritePin>
	lcd->dataPort->ODR &= ~0xff;
 8001efc:	68a3      	ldr	r3, [r4, #8]
 8001efe:	695a      	ldr	r2, [r3, #20]
 8001f00:	f022 02ff 	bic.w	r2, r2, #255	; 0xff
 8001f04:	615a      	str	r2, [r3, #20]
	lcd->dataPort->ODR |= data;
 8001f06:	695a      	ldr	r2, [r3, #20]
 8001f08:	4315      	orrs	r5, r2
 8001f0a:	615d      	str	r5, [r3, #20]

	TextLCD_Strobe(lcd);
 8001f0c:	4620      	mov	r0, r4
}
 8001f0e:	e8bd 4038 	ldmia.w	sp!, {r3, r4, r5, lr}
	TextLCD_Strobe(lcd);
 8001f12:	f7ff bfb7 	b.w	8001e84 <TextLCD_Strobe>

08001f16 <TextLCD_Init>:

void TextLCD_Init(TextLCDType *lcd, GPIO_TypeDef *controlPort, uint16_t rsPin, uint16_t rwPin, uint16_t enPin, GPIO_TypeDef *dataPort, uint16_t dataPins)
{
 8001f16:	b538      	push	{r3, r4, r5, lr}
 8001f18:	4604      	mov	r4, r0
 8001f1a:	f8bd 5010 	ldrh.w	r5, [sp, #16]
 8001f1e:	f8bd 0018 	ldrh.w	r0, [sp, #24]
	lcd->controlPort = controlPort;
	lcd->rsPin = rsPin;
	lcd->rwPin = rwPin;
 8001f22:	8223      	strh	r3, [r4, #16]
	lcd->strbPin = enPin;
	lcd->dataPort = dataPort;
 8001f24:	9b05      	ldr	r3, [sp, #20]
	lcd->rsPin = rsPin;
 8001f26:	81a2      	strh	r2, [r4, #12]
	lcd->dataPort = dataPort;
 8001f28:	60a3      	str	r3, [r4, #8]
	lcd->controlPort = controlPort;
 8001f2a:	6061      	str	r1, [r4, #4]
	lcd->dataPins = dataPins;
 8001f2c:	8260      	strh	r0, [r4, #18]
	lcd->strbPin = enPin;
 8001f2e:	81e5      	strh	r5, [r4, #14]

	HAL_Delay(20);
 8001f30:	2014      	movs	r0, #20
 8001f32:	f7fe ff13 	bl	8000d5c <HAL_Delay>
	TextLCD_Cmd(lcd, 0x38);
 8001f36:	2138      	movs	r1, #56	; 0x38
 8001f38:	4620      	mov	r0, r4
 8001f3a:	f7ff ffba 	bl	8001eb2 <TextLCD_Cmd>
	HAL_Delay(6);
 8001f3e:	2006      	movs	r0, #6
 8001f40:	f7fe ff0c 	bl	8000d5c <HAL_Delay>
	TextLCD_Cmd(lcd, 0x38);
 8001f44:	2138      	movs	r1, #56	; 0x38
 8001f46:	4620      	mov	r0, r4
 8001f48:	f7ff ffb3 	bl	8001eb2 <TextLCD_Cmd>
	delay_us(100);
 8001f4c:	2064      	movs	r0, #100	; 0x64
 8001f4e:	f000 f871 	bl	8002034 <delay_us>
	TextLCD_Cmd(lcd, 0x38);
 8001f52:	2138      	movs	r1, #56	; 0x38
 8001f54:	4620      	mov	r0, r4
 8001f56:	f7ff ffac 	bl	8001eb2 <TextLCD_Cmd>
	delay_us(40);
 8001f5a:	2028      	movs	r0, #40	; 0x28
 8001f5c:	f000 f86a 	bl	8002034 <delay_us>
	TextLCD_Cmd(lcd, 0x38);
 8001f60:	2138      	movs	r1, #56	; 0x38
 8001f62:	4620      	mov	r0, r4
 8001f64:	f7ff ffa5 	bl	8001eb2 <TextLCD_Cmd>
	delay_us(40);
 8001f68:	2028      	movs	r0, #40	; 0x28
 8001f6a:	f000 f863 	bl	8002034 <delay_us>
	TextLCD_Cmd(lcd, 0x06);
 8001f6e:	2106      	movs	r1, #6
 8001f70:	4620      	mov	r0, r4
 8001f72:	f7ff ff9e 	bl	8001eb2 <TextLCD_Cmd>
	delay_us(40);
 8001f76:	2028      	movs	r0, #40	; 0x28
 8001f78:	f000 f85c 	bl	8002034 <delay_us>
	TextLCD_Cmd(lcd, 0x0E);
 8001f7c:	210e      	movs	r1, #14
 8001f7e:	4620      	mov	r0, r4
 8001f80:	f7ff ff97 	bl	8001eb2 <TextLCD_Cmd>
	delay_us(40);
 8001f84:	2028      	movs	r0, #40	; 0x28
 8001f86:	f000 f855 	bl	8002034 <delay_us>
	TextLCD_Cmd(lcd, 0x01);
 8001f8a:	2101      	movs	r1, #1
 8001f8c:	4620      	mov	r0, r4
 8001f8e:	f7ff ff90 	bl	8001eb2 <TextLCD_Cmd>
	HAL_Delay(3);
 8001f92:	2003      	movs	r0, #3
 8001f94:	f7fe fee2 	bl	8000d5c <HAL_Delay>
	TextLCD_Cmd(lcd, 0x80);
 8001f98:	4620      	mov	r0, r4
 8001f9a:	2180      	movs	r1, #128	; 0x80
}
 8001f9c:	e8bd 4038 	ldmia.w	sp!, {r3, r4, r5, lr}
	TextLCD_Cmd(lcd, 0x80);
 8001fa0:	f7ff bf87 	b.w	8001eb2 <TextLCD_Cmd>

08001fa4 <TextLCD_Clear>:
{
	TextLCD_Cmd(lcd, 0x02);
	HAL_Delay(2);
}
void TextLCD_Clear (TextLCDType *lcd) // clears display
{
 8001fa4:	b508      	push	{r3, lr}
	TextLCD_Cmd(lcd, 0x01);
 8001fa6:	2101      	movs	r1, #1
 8001fa8:	f7ff ff83 	bl	8001eb2 <TextLCD_Cmd>
	HAL_Delay(2);
 8001fac:	2002      	movs	r0, #2
}
 8001fae:	e8bd 4008 	ldmia.w	sp!, {r3, lr}
	HAL_Delay(2);
 8001fb2:	f7fe bed3 	b.w	8000d5c <HAL_Delay>

08001fb6 <TextLCD_Position>:
void TextLCD_Position (TextLCDType *lcd, int x, int y)
{
 8001fb6:	b508      	push	{r3, lr}
	TextLCD_Cmd(lcd, 0x01 * x | 0x80 | 0x40 * y);
 8001fb8:	ea41 1182 	orr.w	r1, r1, r2, lsl #6
 8001fbc:	f061 017f 	orn	r1, r1, #127	; 0x7f
 8001fc0:	b2c9      	uxtb	r1, r1
 8001fc2:	f7ff ff76 	bl	8001eb2 <TextLCD_Cmd>
	delay_us(40);
 8001fc6:	2028      	movs	r0, #40	; 0x28
}
 8001fc8:	e8bd 4008 	ldmia.w	sp!, {r3, lr}
	delay_us(40);
 8001fcc:	f000 b832 	b.w	8002034 <delay_us>

08001fd0 <TextLCD_Putchar>:
void TextLCD_Putchar (TextLCDType *lcd, uint8_t data)
{
 8001fd0:	b508      	push	{r3, lr}
	TextLCD_Data(lcd, data);
 8001fd2:	f7ff ff86 	bl	8001ee2 <TextLCD_Data>
	delay_us(40);
 8001fd6:	2028      	movs	r0, #40	; 0x28
}
 8001fd8:	e8bd 4008 	ldmia.w	sp!, {r3, lr}
	delay_us(40);
 8001fdc:	f000 b82a 	b.w	8002034 <delay_us>

08001fe0 <TextLCD_PutInt>:
void TextLCD_PutInt (TextLCDType *lcd, uint32_t data){
	if(data < 0){
		TextLCD_Putchar(lcd, '-');
		data = data * -1;
	}
	if(data > 9)
 8001fe0:	2909      	cmp	r1, #9
void TextLCD_PutInt (TextLCDType *lcd, uint32_t data){
 8001fe2:	b538      	push	{r3, r4, r5, lr}
 8001fe4:	4605      	mov	r5, r0
 8001fe6:	460c      	mov	r4, r1
	if(data > 9)
 8001fe8:	d904      	bls.n	8001ff4 <TextLCD_PutInt+0x14>
		TextLCD_PutInt(lcd, data/10);
 8001fea:	210a      	movs	r1, #10
 8001fec:	fbb4 f1f1 	udiv	r1, r4, r1
 8001ff0:	f7ff fff6 	bl	8001fe0 <TextLCD_PutInt>

	TextLCD_Putchar(lcd, data % 10 + 0x30);
 8001ff4:	230a      	movs	r3, #10
 8001ff6:	fbb4 f1f3 	udiv	r1, r4, r3
 8001ffa:	fb03 4111 	mls	r1, r3, r1, r4
 8001ffe:	3130      	adds	r1, #48	; 0x30
 8002000:	4628      	mov	r0, r5
 8002002:	b2c9      	uxtb	r1, r1
}
 8002004:	e8bd 4038 	ldmia.w	sp!, {r3, r4, r5, lr}
	TextLCD_Putchar(lcd, data % 10 + 0x30);
 8002008:	f7ff bfe2 	b.w	8001fd0 <TextLCD_Putchar>

0800200c <TextLCD_Puts>:
void TextLCD_Puts (TextLCDType *lcd, char *string)
{
 800200c:	b570      	push	{r4, r5, r6, lr}
 800200e:	4606      	mov	r6, r0
 8002010:	1e4d      	subs	r5, r1, #1
		TextLCD_Putchar(lcd, *string);
		string++;
		counter++;
		if(counter > 15){
			TextLCD_Position(lcd, 0, 1);
			counter = 0;
 8002012:	2400      	movs	r4, #0
	while(*string != '\0'){
 8002014:	f815 1f01 	ldrb.w	r1, [r5, #1]!
 8002018:	b901      	cbnz	r1, 800201c <TextLCD_Puts+0x10>
		}
	}
}
 800201a:	bd70      	pop	{r4, r5, r6, pc}
		TextLCD_Putchar(lcd, *string);
 800201c:	4630      	mov	r0, r6
		counter++;
 800201e:	3401      	adds	r4, #1
		TextLCD_Putchar(lcd, *string);
 8002020:	f7ff ffd6 	bl	8001fd0 <TextLCD_Putchar>
		if(counter > 15){
 8002024:	2c0f      	cmp	r4, #15
 8002026:	d9f5      	bls.n	8002014 <TextLCD_Puts+0x8>
			TextLCD_Position(lcd, 0, 1);
 8002028:	2201      	movs	r2, #1
 800202a:	2100      	movs	r1, #0
 800202c:	4630      	mov	r0, r6
 800202e:	f7ff ffc2 	bl	8001fb6 <TextLCD_Position>
 8002032:	e7ee      	b.n	8002012 <TextLCD_Puts+0x6>

08002034 <delay_us>:
#include "delay.h"

volatile uint32_t usTick = 0;

void delay_us(uint32_t delay)
{
 8002034:	b510      	push	{r4, lr}
 8002036:	4604      	mov	r4, r0
	HAL_TIM_Base_Start_IT(&htim11);
 8002038:	4807      	ldr	r0, [pc, #28]	; (8002058 <delay_us+0x24>)
 800203a:	f7ff fcab 	bl	8001994 <HAL_TIM_Base_Start_IT>
	uint32_t current = usTick;
 800203e:	4b07      	ldr	r3, [pc, #28]	; (800205c <delay_us+0x28>)
 8002040:	6819      	ldr	r1, [r3, #0]
	while((usTick - current) < (delay - 2));
 8002042:	3c02      	subs	r4, #2
 8002044:	681a      	ldr	r2, [r3, #0]
 8002046:	1a52      	subs	r2, r2, r1
 8002048:	42a2      	cmp	r2, r4
 800204a:	d3fb      	bcc.n	8002044 <delay_us+0x10>
	HAL_TIM_Base_Stop_IT(&htim11);
 800204c:	4802      	ldr	r0, [pc, #8]	; (8002058 <delay_us+0x24>)
}
 800204e:	e8bd 4010 	ldmia.w	sp!, {r4, lr}
	HAL_TIM_Base_Stop_IT(&htim11);
 8002052:	f7ff bcaa 	b.w	80019aa <HAL_TIM_Base_Stop_IT>
 8002056:	bf00      	nop
 8002058:	2000005c 	.word	0x2000005c
 800205c:	20000030 	.word	0x20000030

08002060 <SystemClock_Config>:
/**
  * @brief System Clock Configuration
  * @retval None
  */
void SystemClock_Config(void)
{
 8002060:	b530      	push	{r4, r5, lr}
 8002062:	b095      	sub	sp, #84	; 0x54
  RCC_OscInitTypeDef RCC_OscInitStruct;
  RCC_ClkInitTypeDef RCC_ClkInitStruct;

    /**Configure the main internal regulator output voltage 
    */
  __HAL_RCC_PWR_CLK_ENABLE();
 8002064:	2200      	movs	r2, #0
 8002066:	4b27      	ldr	r3, [pc, #156]	; (8002104 <SystemClock_Config+0xa4>)
 8002068:	9201      	str	r2, [sp, #4]
 800206a:	6c19      	ldr	r1, [r3, #64]	; 0x40
 800206c:	f041 5180 	orr.w	r1, r1, #268435456	; 0x10000000
 8002070:	6419      	str	r1, [r3, #64]	; 0x40
 8002072:	6c1b      	ldr	r3, [r3, #64]	; 0x40

  __HAL_PWR_VOLTAGESCALING_CONFIG(PWR_REGULATOR_VOLTAGE_SCALE2);
 8002074:	4924      	ldr	r1, [pc, #144]	; (8002108 <SystemClock_Config+0xa8>)
  __HAL_RCC_PWR_CLK_ENABLE();
 8002076:	f003 5380 	and.w	r3, r3, #268435456	; 0x10000000
 800207a:	9301      	str	r3, [sp, #4]
 800207c:	9b01      	ldr	r3, [sp, #4]
  __HAL_PWR_VOLTAGESCALING_CONFIG(PWR_REGULATOR_VOLTAGE_SCALE2);
 800207e:	9202      	str	r2, [sp, #8]
 8002080:	680b      	ldr	r3, [r1, #0]
 8002082:	f423 4340 	bic.w	r3, r3, #49152	; 0xc000
 8002086:	f443 4300 	orr.w	r3, r3, #32768	; 0x8000
 800208a:	600b      	str	r3, [r1, #0]
 800208c:	680b      	ldr	r3, [r1, #0]
    */
  RCC_OscInitStruct.OscillatorType = RCC_OSCILLATORTYPE_HSI;
  RCC_OscInitStruct.HSIState = RCC_HSI_ON;
  RCC_OscInitStruct.HSICalibrationValue = 16;
  RCC_OscInitStruct.PLL.PLLState = RCC_PLL_ON;
  RCC_OscInitStruct.PLL.PLLSource = RCC_PLLSOURCE_HSI;
 800208e:	920f      	str	r2, [sp, #60]	; 0x3c
  __HAL_PWR_VOLTAGESCALING_CONFIG(PWR_REGULATOR_VOLTAGE_SCALE2);
 8002090:	f403 4340 	and.w	r3, r3, #49152	; 0xc000
 8002094:	9302      	str	r3, [sp, #8]
 8002096:	9b02      	ldr	r3, [sp, #8]
  RCC_OscInitStruct.HSIState = RCC_HSI_ON;
 8002098:	2301      	movs	r3, #1
 800209a:	930b      	str	r3, [sp, #44]	; 0x2c
  RCC_OscInitStruct.HSICalibrationValue = 16;
 800209c:	2310      	movs	r3, #16
 800209e:	930c      	str	r3, [sp, #48]	; 0x30
  RCC_OscInitStruct.PLL.PLLM = 16;
 80020a0:	9310      	str	r3, [sp, #64]	; 0x40
  RCC_OscInitStruct.PLL.PLLN = 336;
 80020a2:	f44f 73a8 	mov.w	r3, #336	; 0x150
  RCC_OscInitStruct.OscillatorType = RCC_OSCILLATORTYPE_HSI;
 80020a6:	2402      	movs	r4, #2
  RCC_OscInitStruct.PLL.PLLN = 336;
 80020a8:	9311      	str	r3, [sp, #68]	; 0x44
  RCC_OscInitStruct.PLL.PLLP = RCC_PLLP_DIV4;
 80020aa:	2504      	movs	r5, #4
  RCC_OscInitStruct.PLL.PLLQ = 7;
 80020ac:	2307      	movs	r3, #7
  if (HAL_RCC_OscConfig(&RCC_OscInitStruct) != HAL_OK)
 80020ae:	a808      	add	r0, sp, #32
  RCC_OscInitStruct.OscillatorType = RCC_OSCILLATORTYPE_HSI;
 80020b0:	9408      	str	r4, [sp, #32]
  RCC_OscInitStruct.PLL.PLLState = RCC_PLL_ON;
 80020b2:	940e      	str	r4, [sp, #56]	; 0x38
  RCC_OscInitStruct.PLL.PLLP = RCC_PLLP_DIV4;
 80020b4:	9512      	str	r5, [sp, #72]	; 0x48
  RCC_OscInitStruct.PLL.PLLQ = 7;
 80020b6:	9313      	str	r3, [sp, #76]	; 0x4c
  if (HAL_RCC_OscConfig(&RCC_OscInitStruct) != HAL_OK)
 80020b8:	f7ff f9fc 	bl	80014b4 <HAL_RCC_OscConfig>
 80020bc:	b100      	cbz	r0, 80020c0 <SystemClock_Config+0x60>
 80020be:	e7fe      	b.n	80020be <SystemClock_Config+0x5e>
    _Error_Handler(__FILE__, __LINE__);
  }

    /**Initializes the CPU, AHB and APB busses clocks 
    */
  RCC_ClkInitStruct.ClockType = RCC_CLOCKTYPE_HCLK|RCC_CLOCKTYPE_SYSCLK
 80020c0:	230f      	movs	r3, #15
 80020c2:	9303      	str	r3, [sp, #12]
                              |RCC_CLOCKTYPE_PCLK1|RCC_CLOCKTYPE_PCLK2;
  RCC_ClkInitStruct.SYSCLKSource = RCC_SYSCLKSOURCE_PLLCLK;
  RCC_ClkInitStruct.AHBCLKDivider = RCC_SYSCLK_DIV1;
 80020c4:	9005      	str	r0, [sp, #20]
  RCC_ClkInitStruct.APB1CLKDivider = RCC_HCLK_DIV2;
 80020c6:	f44f 5380 	mov.w	r3, #4096	; 0x1000
  RCC_ClkInitStruct.APB2CLKDivider = RCC_HCLK_DIV1;
 80020ca:	9007      	str	r0, [sp, #28]

  if (HAL_RCC_ClockConfig(&RCC_ClkInitStruct, FLASH_LATENCY_2) != HAL_OK)
 80020cc:	4621      	mov	r1, r4
 80020ce:	a803      	add	r0, sp, #12
  RCC_ClkInitStruct.SYSCLKSource = RCC_SYSCLKSOURCE_PLLCLK;
 80020d0:	9404      	str	r4, [sp, #16]
  RCC_ClkInitStruct.APB1CLKDivider = RCC_HCLK_DIV2;
 80020d2:	9306      	str	r3, [sp, #24]
  if (HAL_RCC_ClockConfig(&RCC_ClkInitStruct, FLASH_LATENCY_2) != HAL_OK)
 80020d4:	f7ff fb9e 	bl	8001814 <HAL_RCC_ClockConfig>
 80020d8:	4604      	mov	r4, r0
 80020da:	b100      	cbz	r0, 80020de <SystemClock_Config+0x7e>
 80020dc:	e7fe      	b.n	80020dc <SystemClock_Config+0x7c>
    _Error_Handler(__FILE__, __LINE__);
  }

    /**Configure the Systick interrupt time 
    */
  HAL_SYSTICK_Config(HAL_RCC_GetHCLKFreq()/1000);
 80020de:	f7ff fc33 	bl	8001948 <HAL_RCC_GetHCLKFreq>
 80020e2:	f44f 737a 	mov.w	r3, #1000	; 0x3e8
 80020e6:	fbb0 f0f3 	udiv	r0, r0, r3
 80020ea:	f7ff f8d9 	bl	80012a0 <HAL_SYSTICK_Config>

    /**Configure the Systick 
    */
  HAL_SYSTICK_CLKSourceConfig(SYSTICK_CLKSOURCE_HCLK);
 80020ee:	4628      	mov	r0, r5
 80020f0:	f7ff f8ec 	bl	80012cc <HAL_SYSTICK_CLKSourceConfig>

  /* SysTick_IRQn interrupt configuration */
  HAL_NVIC_SetPriority(SysTick_IRQn, 0, 0);
 80020f4:	4622      	mov	r2, r4
 80020f6:	4621      	mov	r1, r4
 80020f8:	f04f 30ff 	mov.w	r0, #4294967295
 80020fc:	f7ff f890 	bl	8001220 <HAL_NVIC_SetPriority>
}
 8002100:	b015      	add	sp, #84	; 0x54
 8002102:	bd30      	pop	{r4, r5, pc}
 8002104:	40023800 	.word	0x40023800
 8002108:	40007000 	.word	0x40007000

0800210c <HAL_ADC_ConvCpltCallback>:
}

/* USER CODE BEGIN 4 */
void HAL_ADC_ConvCpltCallback(ADC_HandleTypeDef* AdcHandle){

	if(__HAL_ADC_GET_FLAG(AdcHandle, ADC_FLAG_EOC)){
 800210c:	6803      	ldr	r3, [r0, #0]
 800210e:	681b      	ldr	r3, [r3, #0]
 8002110:	079b      	lsls	r3, r3, #30
void HAL_ADC_ConvCpltCallback(ADC_HandleTypeDef* AdcHandle){
 8002112:	b510      	push	{r4, lr}
	if(__HAL_ADC_GET_FLAG(AdcHandle, ADC_FLAG_EOC)){
 8002114:	d50a      	bpl.n	800212c <HAL_ADC_ConvCpltCallback+0x20>
		if(i == 0){
 8002116:	4c0e      	ldr	r4, [pc, #56]	; (8002150 <HAL_ADC_ConvCpltCallback+0x44>)
 8002118:	7823      	ldrb	r3, [r4, #0]
 800211a:	b943      	cbnz	r3, 800212e <HAL_ADC_ConvCpltCallback+0x22>
			vRef = HAL_ADC_GetValue(&hadc1);
 800211c:	480d      	ldr	r0, [pc, #52]	; (8002154 <HAL_ADC_ConvCpltCallback+0x48>)
 800211e:	f7fe ff3b 	bl	8000f98 <HAL_ADC_GetValue>
 8002122:	4b0d      	ldr	r3, [pc, #52]	; (8002158 <HAL_ADC_ConvCpltCallback+0x4c>)
			i++;
		}
		else if(i == 1){
			cpuV = HAL_ADC_GetValue(&hadc1);
 8002124:	6018      	str	r0, [r3, #0]
			i++;
 8002126:	7823      	ldrb	r3, [r4, #0]
 8002128:	3301      	adds	r3, #1
		}
		else if(i == 2){
			termV = HAL_ADC_GetValue(&hadc1);
			i = 0;
 800212a:	7023      	strb	r3, [r4, #0]
 800212c:	bd10      	pop	{r4, pc}
		else if(i == 1){
 800212e:	2b01      	cmp	r3, #1
 8002130:	d104      	bne.n	800213c <HAL_ADC_ConvCpltCallback+0x30>
			cpuV = HAL_ADC_GetValue(&hadc1);
 8002132:	4808      	ldr	r0, [pc, #32]	; (8002154 <HAL_ADC_ConvCpltCallback+0x48>)
 8002134:	f7fe ff30 	bl	8000f98 <HAL_ADC_GetValue>
 8002138:	4b08      	ldr	r3, [pc, #32]	; (800215c <HAL_ADC_ConvCpltCallback+0x50>)
 800213a:	e7f3      	b.n	8002124 <HAL_ADC_ConvCpltCallback+0x18>
		else if(i == 2){
 800213c:	2b02      	cmp	r3, #2
 800213e:	d1f5      	bne.n	800212c <HAL_ADC_ConvCpltCallback+0x20>
			termV = HAL_ADC_GetValue(&hadc1);
 8002140:	4804      	ldr	r0, [pc, #16]	; (8002154 <HAL_ADC_ConvCpltCallback+0x48>)
 8002142:	f7fe ff29 	bl	8000f98 <HAL_ADC_GetValue>
 8002146:	4b06      	ldr	r3, [pc, #24]	; (8002160 <HAL_ADC_ConvCpltCallback+0x54>)
 8002148:	6018      	str	r0, [r3, #0]
			i = 0;
 800214a:	2300      	movs	r3, #0
 800214c:	e7ed      	b.n	800212a <HAL_ADC_ConvCpltCallback+0x1e>
 800214e:	bf00      	nop
 8002150:	20000044 	.word	0x20000044
 8002154:	20000148 	.word	0x20000148
 8002158:	20000054 	.word	0x20000054
 800215c:	20000040 	.word	0x20000040
 8002160:	20000050 	.word	0x20000050

08002164 <Read_DHT11_bit_raw>:
		}
	}
}
int16_t Read_DHT11_bit_raw(){
 8002164:	b5f8      	push	{r3, r4, r5, r6, r7, lr}
	uint16_t cnt_low = 0;
	uint16_t cnt_high = 0;

	//Count how long many loops the GPIO pin is low
	while(HAL_GPIO_ReadPin(DHT11_GPIO_Port, DHT11_Pin) == 0){
 8002166:	4c10      	ldr	r4, [pc, #64]	; (80021a8 <Read_DHT11_bit_raw+0x44>)
		cnt_low++;
		if(cnt_low >= DHT11_timeout)
 8002168:	4e10      	ldr	r6, [pc, #64]	; (80021ac <Read_DHT11_bit_raw+0x48>)
	uint16_t cnt_low = 0;
 800216a:	2500      	movs	r5, #0
	while(HAL_GPIO_ReadPin(DHT11_GPIO_Port, DHT11_Pin) == 0){
 800216c:	2110      	movs	r1, #16
 800216e:	4620      	mov	r0, r4
 8002170:	f7ff f994 	bl	800149c <HAL_GPIO_ReadPin>
 8002174:	b150      	cbz	r0, 800218c <Read_DHT11_bit_raw+0x28>
			return DHT11_timeout;
	}

	//Count how long many loops the GPIO pin is high
	while(HAL_GPIO_ReadPin(DHT11_GPIO_Port, DHT11_Pin) == 1){
 8002176:	4e0c      	ldr	r6, [pc, #48]	; (80021a8 <Read_DHT11_bit_raw+0x44>)
			cnt_high++;
			if(cnt_high >= DHT11_timeout)
 8002178:	4f0c      	ldr	r7, [pc, #48]	; (80021ac <Read_DHT11_bit_raw+0x48>)
 800217a:	2400      	movs	r4, #0
	while(HAL_GPIO_ReadPin(DHT11_GPIO_Port, DHT11_Pin) == 1){
 800217c:	2110      	movs	r1, #16
 800217e:	4630      	mov	r0, r6
 8002180:	f7ff f98c 	bl	800149c <HAL_GPIO_ReadPin>
 8002184:	2801      	cmp	r0, #1
 8002186:	d008      	beq.n	800219a <Read_DHT11_bit_raw+0x36>
				return DHT11_timeout;
		}
	// Return the difference between low and high count.
	// Will be < 0 for a '0'-bit and > 0 for a '1'-bit
	return cnt_high-cnt_low;
 8002188:	1b60      	subs	r0, r4, r5
 800218a:	e004      	b.n	8002196 <Read_DHT11_bit_raw+0x32>
		cnt_low++;
 800218c:	1c68      	adds	r0, r5, #1
 800218e:	b285      	uxth	r5, r0
		if(cnt_low >= DHT11_timeout)
 8002190:	8830      	ldrh	r0, [r6, #0]
 8002192:	4285      	cmp	r5, r0
 8002194:	d3ea      	bcc.n	800216c <Read_DHT11_bit_raw+0x8>
	return cnt_high-cnt_low;
 8002196:	b200      	sxth	r0, r0
}
 8002198:	bdf8      	pop	{r3, r4, r5, r6, r7, pc}
			cnt_high++;
 800219a:	3401      	adds	r4, #1
			if(cnt_high >= DHT11_timeout)
 800219c:	8838      	ldrh	r0, [r7, #0]
			cnt_high++;
 800219e:	b2a4      	uxth	r4, r4
			if(cnt_high >= DHT11_timeout)
 80021a0:	4284      	cmp	r4, r0
 80021a2:	d3eb      	bcc.n	800217c <Read_DHT11_bit_raw+0x18>
 80021a4:	e7f7      	b.n	8002196 <Read_DHT11_bit_raw+0x32>
 80021a6:	bf00      	nop
 80021a8:	40020000 	.word	0x40020000
 80021ac:	20000008 	.word	0x20000008

080021b0 <Read_DHT11>:
int16_t Read_DHT11(){
 80021b0:	b5f8      	push	{r3, r4, r5, r6, r7, lr}
	uint16_t cnt=0;

	HAL_Delay(100);
 80021b2:	2064      	movs	r0, #100	; 0x64
 80021b4:	f7fe fdd2 	bl	8000d5c <HAL_Delay>
	HAL_GPIO_WritePin(DHT11_GPIO_Port, DHT11_Pin, 0);
 80021b8:	2200      	movs	r2, #0
 80021ba:	2110      	movs	r1, #16
 80021bc:	4827      	ldr	r0, [pc, #156]	; (800225c <Read_DHT11+0xac>)
	HAL_Delay(20);
	HAL_GPIO_WritePin(DHT11_GPIO_Port, DHT11_Pin, 1);

	// Make sure GPIO is high before we start to capture data from DHT11 sensor
	while(HAL_GPIO_ReadPin(DHT11_GPIO_Port, DHT11_Pin) == 1){
 80021be:	4d27      	ldr	r5, [pc, #156]	; (800225c <Read_DHT11+0xac>)
		cnt++;
		if(cnt > DHT11_timeout)
 80021c0:	4e27      	ldr	r6, [pc, #156]	; (8002260 <Read_DHT11+0xb0>)
	HAL_GPIO_WritePin(DHT11_GPIO_Port, DHT11_Pin, 0);
 80021c2:	f7ff f971 	bl	80014a8 <HAL_GPIO_WritePin>
	HAL_Delay(20);
 80021c6:	2014      	movs	r0, #20
 80021c8:	f7fe fdc8 	bl	8000d5c <HAL_Delay>
	HAL_GPIO_WritePin(DHT11_GPIO_Port, DHT11_Pin, 1);
 80021cc:	2201      	movs	r2, #1
 80021ce:	2110      	movs	r1, #16
 80021d0:	4822      	ldr	r0, [pc, #136]	; (800225c <Read_DHT11+0xac>)
 80021d2:	f7ff f969 	bl	80014a8 <HAL_GPIO_WritePin>
	uint16_t cnt=0;
 80021d6:	2400      	movs	r4, #0
	while(HAL_GPIO_ReadPin(DHT11_GPIO_Port, DHT11_Pin) == 1){
 80021d8:	2110      	movs	r1, #16
 80021da:	4628      	mov	r0, r5
 80021dc:	f7ff f95e 	bl	800149c <HAL_GPIO_ReadPin>
 80021e0:	2801      	cmp	r0, #1
 80021e2:	d033      	beq.n	800224c <Read_DHT11+0x9c>
			return -99;
	}
	// Read raw bit timing values. Negative values indicates 0 and positive values 1.
	for(uint8_t k=0; k < 41; k++)
		DHT11_buff_raw[k] = Read_DHT11_bit_raw();
 80021e4:	4d1f      	ldr	r5, [pc, #124]	; (8002264 <Read_DHT11+0xb4>)
 80021e6:	2400      	movs	r4, #0
 80021e8:	462e      	mov	r6, r5
 80021ea:	f7ff ffbb 	bl	8002164 <Read_DHT11_bit_raw>
 80021ee:	f825 0014 	strh.w	r0, [r5, r4, lsl #1]
 80021f2:	3401      	adds	r4, #1
	for(uint8_t k=0; k < 41; k++)
 80021f4:	2c29      	cmp	r4, #41	; 0x29
 80021f6:	d1f8      	bne.n	80021ea <Read_DHT11+0x3a>
	uint8_t val;
	for(uint8_t byte = 0; byte < 5; byte++){
		val = 0;
		for(uint8_t bit = 0; bit < 8; bit++){
			// Check if we timed out during reading bit
			if(DHT11_buff_raw[(byte << 3)+bit+1] >= DHT11_timeout)
 80021f8:	4b19      	ldr	r3, [pc, #100]	; (8002260 <Read_DHT11+0xb0>)
			val = val << 1;	// shift left as MSB first
			// Check if raw bit value is > 0, then it is a '1' bit
			if(DHT11_buff_raw[(byte << 3)+bit+1] > 0)
				val = val | 0x01;
		}
		DHT11_data[byte] = val;
 80021fa:	4a1b      	ldr	r2, [pc, #108]	; (8002268 <Read_DHT11+0xb8>)
			if(DHT11_buff_raw[(byte << 3)+bit+1] >= DHT11_timeout)
 80021fc:	881f      	ldrh	r7, [r3, #0]
 80021fe:	2000      	movs	r0, #0
 8002200:	eb06 1400 	add.w	r4, r6, r0, lsl #4
 8002204:	2108      	movs	r1, #8
 8002206:	2300      	movs	r3, #0
 8002208:	f934 5f02 	ldrsh.w	r5, [r4, #2]!
 800220c:	42bd      	cmp	r5, r7
 800220e:	da22      	bge.n	8002256 <Read_DHT11+0xa6>
			val = val << 1;	// shift left as MSB first
 8002210:	005b      	lsls	r3, r3, #1
			if(DHT11_buff_raw[(byte << 3)+bit+1] > 0)
 8002212:	2d00      	cmp	r5, #0
			val = val << 1;	// shift left as MSB first
 8002214:	b2db      	uxtb	r3, r3
 8002216:	f101 31ff 	add.w	r1, r1, #4294967295
				val = val | 0x01;
 800221a:	bfc8      	it	gt
 800221c:	f043 0301 	orrgt.w	r3, r3, #1
		for(uint8_t bit = 0; bit < 8; bit++){
 8002220:	f011 01ff 	ands.w	r1, r1, #255	; 0xff
 8002224:	d1f0      	bne.n	8002208 <Read_DHT11+0x58>
		DHT11_data[byte] = val;
 8002226:	5413      	strb	r3, [r2, r0]
 8002228:	3001      	adds	r0, #1
	for(uint8_t byte = 0; byte < 5; byte++){
 800222a:	2805      	cmp	r0, #5
 800222c:	d1e8      	bne.n	8002200 <Read_DHT11+0x50>
	}

	uint8_t sum = 0;
	for(uint8_t byte = 0; byte < 4; byte++)
		sum = sum + DHT11_data[byte];
 800222e:	7851      	ldrb	r1, [r2, #1]
 8002230:	7813      	ldrb	r3, [r2, #0]
 8002232:	7890      	ldrb	r0, [r2, #2]
 8002234:	440b      	add	r3, r1
 8002236:	78d1      	ldrb	r1, [r2, #3]

	if(sum != DHT11_data[4])
 8002238:	7912      	ldrb	r2, [r2, #4]
		sum = sum + DHT11_data[byte];
 800223a:	fa50 f383 	uxtab	r3, r0, r3
 800223e:	fa51 f383 	uxtab	r3, r1, r3
	if(sum != DHT11_data[4])
 8002242:	b2db      	uxtb	r3, r3
 8002244:	429a      	cmp	r2, r3
 8002246:	d106      	bne.n	8002256 <Read_DHT11+0xa6>
		return -99;

	return DHT11_data[2];
 8002248:	b200      	sxth	r0, r0

}
 800224a:	bdf8      	pop	{r3, r4, r5, r6, r7, pc}
		cnt++;
 800224c:	3401      	adds	r4, #1
		if(cnt > DHT11_timeout)
 800224e:	8833      	ldrh	r3, [r6, #0]
		cnt++;
 8002250:	b2a4      	uxth	r4, r4
		if(cnt > DHT11_timeout)
 8002252:	42a3      	cmp	r3, r4
 8002254:	d2c0      	bcs.n	80021d8 <Read_DHT11+0x28>
			return -99;
 8002256:	f06f 0062 	mvn.w	r0, #98	; 0x62
 800225a:	bdf8      	pop	{r3, r4, r5, r6, r7, pc}
 800225c:	40020000 	.word	0x40020000
 8002260:	20000008 	.word	0x20000008
 8002264:	200000ac 	.word	0x200000ac
 8002268:	2000019a 	.word	0x2000019a
 800226c:	00000000 	.word	0x00000000

08002270 <calcTemps>:
		numArr[i] = (0x030+(num % 10));
	for(int x = n-1; x >= 0; x--)
		TextLCD_Putchar(&lcd, numArr[x]);

}
void calcTemps(){
 8002270:	b508      	push	{r3, lr}
	  cpuTemp = (uint32_t) (80/(*TS_CAL110_ADDR - *TS_CAL30_ADDR) * (cpuV - *TS_CAL30_ADDR) + 30);
 8002272:	4b15      	ldr	r3, [pc, #84]	; (80022c8 <calcTemps+0x58>)
 8002274:	4a15      	ldr	r2, [pc, #84]	; (80022cc <calcTemps+0x5c>)
 8002276:	8818      	ldrh	r0, [r3, #0]
 8002278:	4b15      	ldr	r3, [pc, #84]	; (80022d0 <calcTemps+0x60>)
 800227a:	8812      	ldrh	r2, [r2, #0]
 800227c:	681b      	ldr	r3, [r3, #0]
 800227e:	1a1b      	subs	r3, r3, r0
 8002280:	1a11      	subs	r1, r2, r0
 8002282:	2250      	movs	r2, #80	; 0x50
 8002284:	fb92 f2f1 	sdiv	r2, r2, r1
 8002288:	4353      	muls	r3, r2
 800228a:	4a12      	ldr	r2, [pc, #72]	; (80022d4 <calcTemps+0x64>)
 800228c:	331e      	adds	r3, #30
 800228e:	6013      	str	r3, [r2, #0]
	  outTemp = (uint32_t) (termV * 0.02882882883 - 64.18918919);
 8002290:	4b11      	ldr	r3, [pc, #68]	; (80022d8 <calcTemps+0x68>)
 8002292:	6818      	ldr	r0, [r3, #0]
 8002294:	f7fe f8e2 	bl	800045c <__aeabi_ui2d>
 8002298:	a307      	add	r3, pc, #28	; (adr r3, 80022b8 <calcTemps+0x48>)
 800229a:	e9d3 2300 	ldrd	r2, r3, [r3]
 800229e:	f7fe f953 	bl	8000548 <__aeabi_dmul>
 80022a2:	a307      	add	r3, pc, #28	; (adr r3, 80022c0 <calcTemps+0x50>)
 80022a4:	e9d3 2300 	ldrd	r2, r3, [r3]
 80022a8:	f7fd ff9a 	bl	80001e0 <__aeabi_dsub>
 80022ac:	f7fe fb5e 	bl	800096c <__aeabi_d2uiz>
 80022b0:	4b0a      	ldr	r3, [pc, #40]	; (80022dc <calcTemps+0x6c>)
 80022b2:	6018      	str	r0, [r3, #0]
 80022b4:	bd08      	pop	{r3, pc}
 80022b6:	bf00      	nop
 80022b8:	f406fef4 	.word	0xf406fef4
 80022bc:	3f9d854d 	.word	0x3f9d854d
 80022c0:	acf9f3a1 	.word	0xacf9f3a1
 80022c4:	40500c1b 	.word	0x40500c1b
 80022c8:	1fff7a2c 	.word	0x1fff7a2c
 80022cc:	1fff7a2e 	.word	0x1fff7a2e
 80022d0:	20000040 	.word	0x20000040
 80022d4:	2000003c 	.word	0x2000003c
 80022d8:	20000050 	.word	0x20000050
 80022dc:	20000048 	.word	0x20000048

080022e0 <checkTemp>:
}
void checkTemp(){
 80022e0:	b538      	push	{r3, r4, r5, lr}
	if(outTemp == tempSetter){
 80022e2:	4d1a      	ldr	r5, [pc, #104]	; (800234c <checkTemp+0x6c>)
 80022e4:	4c1a      	ldr	r4, [pc, #104]	; (8002350 <checkTemp+0x70>)
 80022e6:	682a      	ldr	r2, [r5, #0]
 80022e8:	6823      	ldr	r3, [r4, #0]
 80022ea:	429a      	cmp	r2, r3
 80022ec:	d10b      	bne.n	8002306 <checkTemp+0x26>
		HAL_GPIO_WritePin(GPIOB, LED_R_Pin, 0);
 80022ee:	2200      	movs	r2, #0
 80022f0:	f44f 7180 	mov.w	r1, #256	; 0x100
 80022f4:	4817      	ldr	r0, [pc, #92]	; (8002354 <checkTemp+0x74>)
 80022f6:	f7ff f8d7 	bl	80014a8 <HAL_GPIO_WritePin>
		HAL_GPIO_WritePin(GPIOB, LED_B_Pin, 0);
 80022fa:	2200      	movs	r2, #0
 80022fc:	f44f 7100 	mov.w	r1, #512	; 0x200
 8002300:	4814      	ldr	r0, [pc, #80]	; (8002354 <checkTemp+0x74>)
 8002302:	f7ff f8d1 	bl	80014a8 <HAL_GPIO_WritePin>
	}

	if(outTemp > tempSetter){
 8002306:	682a      	ldr	r2, [r5, #0]
 8002308:	6823      	ldr	r3, [r4, #0]
 800230a:	429a      	cmp	r2, r3
 800230c:	d90b      	bls.n	8002326 <checkTemp+0x46>
		HAL_GPIO_WritePin(GPIOB, LED_R_Pin, 1);
 800230e:	2201      	movs	r2, #1
 8002310:	f44f 7180 	mov.w	r1, #256	; 0x100
 8002314:	480f      	ldr	r0, [pc, #60]	; (8002354 <checkTemp+0x74>)
 8002316:	f7ff f8c7 	bl	80014a8 <HAL_GPIO_WritePin>
		HAL_GPIO_WritePin(GPIOB, LED_B_Pin, 0);
 800231a:	2200      	movs	r2, #0
 800231c:	f44f 7100 	mov.w	r1, #512	; 0x200
 8002320:	480c      	ldr	r0, [pc, #48]	; (8002354 <checkTemp+0x74>)
 8002322:	f7ff f8c1 	bl	80014a8 <HAL_GPIO_WritePin>
	}

	if(outTemp < tempSetter){
 8002326:	682a      	ldr	r2, [r5, #0]
 8002328:	6823      	ldr	r3, [r4, #0]
 800232a:	429a      	cmp	r2, r3
 800232c:	d20d      	bcs.n	800234a <checkTemp+0x6a>
		HAL_GPIO_WritePin(GPIOB, LED_R_Pin, 0);
 800232e:	2200      	movs	r2, #0
 8002330:	f44f 7180 	mov.w	r1, #256	; 0x100
 8002334:	4807      	ldr	r0, [pc, #28]	; (8002354 <checkTemp+0x74>)
 8002336:	f7ff f8b7 	bl	80014a8 <HAL_GPIO_WritePin>
		HAL_GPIO_WritePin(GPIOB, LED_B_Pin, 1);
 800233a:	2201      	movs	r2, #1
 800233c:	f44f 7100 	mov.w	r1, #512	; 0x200
 8002340:	4804      	ldr	r0, [pc, #16]	; (8002354 <checkTemp+0x74>)
	}
}
 8002342:	e8bd 4038 	ldmia.w	sp!, {r3, r4, r5, lr}
		HAL_GPIO_WritePin(GPIOB, LED_B_Pin, 1);
 8002346:	f7ff b8af 	b.w	80014a8 <HAL_GPIO_WritePin>
 800234a:	bd38      	pop	{r3, r4, r5, pc}
 800234c:	20000048 	.word	0x20000048
 8002350:	2000000c 	.word	0x2000000c
 8002354:	40020400 	.word	0x40020400

08002358 <setTemp>:
void setTemp(){
 8002358:	b508      	push	{r3, lr}
	if(HAL_GPIO_ReadPin(GPIOC, BTN_UP_Pin) == 1)
 800235a:	f44f 6180 	mov.w	r1, #1024	; 0x400
 800235e:	480c      	ldr	r0, [pc, #48]	; (8002390 <setTemp+0x38>)
 8002360:	f7ff f89c 	bl	800149c <HAL_GPIO_ReadPin>
 8002364:	2801      	cmp	r0, #1
		tempSetter--;
 8002366:	bf08      	it	eq
 8002368:	4a0a      	ldreq	r2, [pc, #40]	; (8002394 <setTemp+0x3c>)
	if(HAL_GPIO_ReadPin(GPIOC, BTN_DOWN_Pin) == 1)
 800236a:	4809      	ldr	r0, [pc, #36]	; (8002390 <setTemp+0x38>)
		tempSetter--;
 800236c:	bf08      	it	eq
 800236e:	6813      	ldreq	r3, [r2, #0]
	if(HAL_GPIO_ReadPin(GPIOC, BTN_DOWN_Pin) == 1)
 8002370:	f44f 5180 	mov.w	r1, #4096	; 0x1000
		tempSetter--;
 8002374:	bf04      	itt	eq
 8002376:	f103 33ff 	addeq.w	r3, r3, #4294967295
 800237a:	6013      	streq	r3, [r2, #0]
	if(HAL_GPIO_ReadPin(GPIOC, BTN_DOWN_Pin) == 1)
 800237c:	f7ff f88e 	bl	800149c <HAL_GPIO_ReadPin>
 8002380:	2801      	cmp	r0, #1
		tempSetter++;
 8002382:	bf01      	itttt	eq
 8002384:	4a03      	ldreq	r2, [pc, #12]	; (8002394 <setTemp+0x3c>)
 8002386:	6813      	ldreq	r3, [r2, #0]
 8002388:	3301      	addeq	r3, #1
 800238a:	6013      	streq	r3, [r2, #0]
 800238c:	bd08      	pop	{r3, pc}
 800238e:	bf00      	nop
 8002390:	40020800 	.word	0x40020800
 8002394:	2000000c 	.word	0x2000000c

08002398 <main>:
{
 8002398:	b580      	push	{r7, lr}
 800239a:	b08e      	sub	sp, #56	; 0x38
  __HAL_RCC_GPIOC_CLK_ENABLE();
 800239c:	2400      	movs	r4, #0
  HAL_Init();
 800239e:	f7fe fcb1 	bl	8000d04 <HAL_Init>
  SystemClock_Config();
 80023a2:	f7ff fe5d 	bl	8002060 <SystemClock_Config>
  __HAL_RCC_GPIOC_CLK_ENABLE();
 80023a6:	4ba4      	ldr	r3, [pc, #656]	; (8002638 <main+0x2a0>)
 80023a8:	9405      	str	r4, [sp, #20]
 80023aa:	6b1a      	ldr	r2, [r3, #48]	; 0x30
  HAL_GPIO_WritePin(GPIOC, LCD_D0_Pin|LCD_D1_Pin|LCD_D2_Pin|LCD_D3_Pin 
 80023ac:	4fa3      	ldr	r7, [pc, #652]	; (800263c <main+0x2a4>)
  __HAL_RCC_GPIOC_CLK_ENABLE();
 80023ae:	f042 0204 	orr.w	r2, r2, #4
 80023b2:	631a      	str	r2, [r3, #48]	; 0x30
 80023b4:	6b1a      	ldr	r2, [r3, #48]	; 0x30
 80023b6:	f002 0204 	and.w	r2, r2, #4
 80023ba:	9205      	str	r2, [sp, #20]
 80023bc:	9a05      	ldr	r2, [sp, #20]
  __HAL_RCC_GPIOH_CLK_ENABLE();
 80023be:	9406      	str	r4, [sp, #24]
 80023c0:	6b1a      	ldr	r2, [r3, #48]	; 0x30
 80023c2:	f042 0280 	orr.w	r2, r2, #128	; 0x80
 80023c6:	631a      	str	r2, [r3, #48]	; 0x30
 80023c8:	6b1a      	ldr	r2, [r3, #48]	; 0x30
 80023ca:	f002 0280 	and.w	r2, r2, #128	; 0x80
 80023ce:	9206      	str	r2, [sp, #24]
 80023d0:	9a06      	ldr	r2, [sp, #24]
  __HAL_RCC_GPIOA_CLK_ENABLE();
 80023d2:	9407      	str	r4, [sp, #28]
 80023d4:	6b1a      	ldr	r2, [r3, #48]	; 0x30
 80023d6:	f042 0201 	orr.w	r2, r2, #1
 80023da:	631a      	str	r2, [r3, #48]	; 0x30
 80023dc:	6b1a      	ldr	r2, [r3, #48]	; 0x30
 80023de:	f002 0201 	and.w	r2, r2, #1
 80023e2:	9207      	str	r2, [sp, #28]
 80023e4:	9a07      	ldr	r2, [sp, #28]
  __HAL_RCC_GPIOB_CLK_ENABLE();
 80023e6:	9408      	str	r4, [sp, #32]
 80023e8:	6b1a      	ldr	r2, [r3, #48]	; 0x30
 80023ea:	f042 0202 	orr.w	r2, r2, #2
 80023ee:	631a      	str	r2, [r3, #48]	; 0x30
 80023f0:	6b1b      	ldr	r3, [r3, #48]	; 0x30
 80023f2:	f003 0302 	and.w	r3, r3, #2
 80023f6:	9308      	str	r3, [sp, #32]
  HAL_GPIO_WritePin(GPIOC, LCD_D0_Pin|LCD_D1_Pin|LCD_D2_Pin|LCD_D3_Pin 
 80023f8:	4622      	mov	r2, r4
 80023fa:	21ff      	movs	r1, #255	; 0xff
 80023fc:	4638      	mov	r0, r7
  __HAL_RCC_GPIOB_CLK_ENABLE();
 80023fe:	9b08      	ldr	r3, [sp, #32]
  HAL_GPIO_WritePin(GPIOC, LCD_D0_Pin|LCD_D1_Pin|LCD_D2_Pin|LCD_D3_Pin 
 8002400:	f7ff f852 	bl	80014a8 <HAL_GPIO_WritePin>
  HAL_GPIO_WritePin(GPIOA, DHT11_Pin|LD2_Pin, GPIO_PIN_RESET);
 8002404:	4622      	mov	r2, r4
 8002406:	2130      	movs	r1, #48	; 0x30
 8002408:	488d      	ldr	r0, [pc, #564]	; (8002640 <main+0x2a8>)
 800240a:	f7ff f84d 	bl	80014a8 <HAL_GPIO_WritePin>
  HAL_GPIO_WritePin(GPIOB, LCD_RS_Pin|LCD_RW_Pin|LCD_E_Pin|LED_R_Pin 
 800240e:	4622      	mov	r2, r4
 8002410:	f240 3107 	movw	r1, #775	; 0x307
 8002414:	488b      	ldr	r0, [pc, #556]	; (8002644 <main+0x2ac>)
 8002416:	f7ff f847 	bl	80014a8 <HAL_GPIO_WritePin>
  GPIO_InitStruct.Pin = B1_Pin;
 800241a:	f44f 5300 	mov.w	r3, #8192	; 0x2000
 800241e:	9309      	str	r3, [sp, #36]	; 0x24
  HAL_GPIO_Init(B1_GPIO_Port, &GPIO_InitStruct);
 8002420:	a909      	add	r1, sp, #36	; 0x24
  GPIO_InitStruct.Mode = GPIO_MODE_IT_FALLING;
 8002422:	4b89      	ldr	r3, [pc, #548]	; (8002648 <main+0x2b0>)
 8002424:	930a      	str	r3, [sp, #40]	; 0x28
  HAL_GPIO_Init(B1_GPIO_Port, &GPIO_InitStruct);
 8002426:	4638      	mov	r0, r7
  GPIO_InitStruct.Mode = GPIO_MODE_OUTPUT_PP;
 8002428:	2501      	movs	r5, #1
  GPIO_InitStruct.Pull = GPIO_NOPULL;
 800242a:	940b      	str	r4, [sp, #44]	; 0x2c
  GPIO_InitStruct.Pin = LCD_D0_Pin|LCD_D1_Pin|LCD_D2_Pin|LCD_D3_Pin 
 800242c:	f04f 08ff 	mov.w	r8, #255	; 0xff
  HAL_GPIO_Init(B1_GPIO_Port, &GPIO_InitStruct);
 8002430:	f7fe ff5e 	bl	80012f0 <HAL_GPIO_Init>
  HAL_GPIO_Init(GPIOC, &GPIO_InitStruct);
 8002434:	a909      	add	r1, sp, #36	; 0x24
 8002436:	4638      	mov	r0, r7
  GPIO_InitStruct.Pin = LCD_D0_Pin|LCD_D1_Pin|LCD_D2_Pin|LCD_D3_Pin 
 8002438:	f8cd 8024 	str.w	r8, [sp, #36]	; 0x24
  GPIO_InitStruct.Mode = GPIO_MODE_OUTPUT_PP;
 800243c:	950a      	str	r5, [sp, #40]	; 0x28
  GPIO_InitStruct.Pull = GPIO_NOPULL;
 800243e:	940b      	str	r4, [sp, #44]	; 0x2c
  GPIO_InitStruct.Speed = GPIO_SPEED_FREQ_LOW;
 8002440:	940c      	str	r4, [sp, #48]	; 0x30
  GPIO_InitStruct.Pin = DHT11_Pin;
 8002442:	2610      	movs	r6, #16
  HAL_GPIO_Init(GPIOC, &GPIO_InitStruct);
 8002444:	f7fe ff54 	bl	80012f0 <HAL_GPIO_Init>
  GPIO_InitStruct.Mode = GPIO_MODE_OUTPUT_OD;
 8002448:	f04f 0911 	mov.w	r9, #17
  HAL_GPIO_Init(DHT11_GPIO_Port, &GPIO_InitStruct);
 800244c:	a909      	add	r1, sp, #36	; 0x24
 800244e:	487c      	ldr	r0, [pc, #496]	; (8002640 <main+0x2a8>)
  GPIO_InitStruct.Pin = DHT11_Pin;
 8002450:	9609      	str	r6, [sp, #36]	; 0x24
  GPIO_InitStruct.Mode = GPIO_MODE_OUTPUT_OD;
 8002452:	f8cd 9028 	str.w	r9, [sp, #40]	; 0x28
  GPIO_InitStruct.Pull = GPIO_NOPULL;
 8002456:	940b      	str	r4, [sp, #44]	; 0x2c
  GPIO_InitStruct.Speed = GPIO_SPEED_FREQ_LOW;
 8002458:	940c      	str	r4, [sp, #48]	; 0x30
  HAL_GPIO_Init(DHT11_GPIO_Port, &GPIO_InitStruct);
 800245a:	f7fe ff49 	bl	80012f0 <HAL_GPIO_Init>
  GPIO_InitStruct.Pin = LD2_Pin;
 800245e:	2320      	movs	r3, #32
  HAL_GPIO_Init(LD2_GPIO_Port, &GPIO_InitStruct);
 8002460:	a909      	add	r1, sp, #36	; 0x24
 8002462:	4877      	ldr	r0, [pc, #476]	; (8002640 <main+0x2a8>)
  GPIO_InitStruct.Pin = LD2_Pin;
 8002464:	9309      	str	r3, [sp, #36]	; 0x24
  GPIO_InitStruct.Mode = GPIO_MODE_OUTPUT_PP;
 8002466:	950a      	str	r5, [sp, #40]	; 0x28
  GPIO_InitStruct.Pull = GPIO_NOPULL;
 8002468:	940b      	str	r4, [sp, #44]	; 0x2c
  GPIO_InitStruct.Speed = GPIO_SPEED_FREQ_LOW;
 800246a:	940c      	str	r4, [sp, #48]	; 0x30
  HAL_GPIO_Init(LD2_GPIO_Port, &GPIO_InitStruct);
 800246c:	f7fe ff40 	bl	80012f0 <HAL_GPIO_Init>
  GPIO_InitStruct.Pin = LCD_RS_Pin|LCD_RW_Pin|LCD_E_Pin|LED_R_Pin 
 8002470:	f240 3307 	movw	r3, #775	; 0x307
  HAL_GPIO_Init(GPIOB, &GPIO_InitStruct);
 8002474:	a909      	add	r1, sp, #36	; 0x24
 8002476:	4873      	ldr	r0, [pc, #460]	; (8002644 <main+0x2ac>)
  GPIO_InitStruct.Pin = LCD_RS_Pin|LCD_RW_Pin|LCD_E_Pin|LED_R_Pin 
 8002478:	9309      	str	r3, [sp, #36]	; 0x24
  GPIO_InitStruct.Mode = GPIO_MODE_OUTPUT_PP;
 800247a:	950a      	str	r5, [sp, #40]	; 0x28
  GPIO_InitStruct.Pull = GPIO_NOPULL;
 800247c:	940b      	str	r4, [sp, #44]	; 0x2c
  GPIO_InitStruct.Speed = GPIO_SPEED_FREQ_LOW;
 800247e:	940c      	str	r4, [sp, #48]	; 0x30
  HAL_GPIO_Init(GPIOB, &GPIO_InitStruct);
 8002480:	f7fe ff36 	bl	80012f0 <HAL_GPIO_Init>
  GPIO_InitStruct.Pin = BTN_UP_Pin|BTN_DOWN_Pin;
 8002484:	f44f 53a0 	mov.w	r3, #5120	; 0x1400
  HAL_GPIO_Init(GPIOC, &GPIO_InitStruct);
 8002488:	4638      	mov	r0, r7
 800248a:	a909      	add	r1, sp, #36	; 0x24
  GPIO_InitStruct.Pin = BTN_UP_Pin|BTN_DOWN_Pin;
 800248c:	9309      	str	r3, [sp, #36]	; 0x24
  GPIO_InitStruct.Mode = GPIO_MODE_INPUT;
 800248e:	940a      	str	r4, [sp, #40]	; 0x28
  GPIO_InitStruct.Pull = GPIO_PULLUP;
 8002490:	950b      	str	r5, [sp, #44]	; 0x2c
  HAL_GPIO_Init(GPIOC, &GPIO_InitStruct);
 8002492:	f7fe ff2d 	bl	80012f0 <HAL_GPIO_Init>
  huart2.Instance = USART2;
 8002496:	486d      	ldr	r0, [pc, #436]	; (800264c <main+0x2b4>)
  huart2.Init.BaudRate = 115200;
 8002498:	4b6d      	ldr	r3, [pc, #436]	; (8002650 <main+0x2b8>)
  huart2.Init.WordLength = UART_WORDLENGTH_8B;
 800249a:	6084      	str	r4, [r0, #8]
  huart2.Init.BaudRate = 115200;
 800249c:	f44f 3ee1 	mov.w	lr, #115200	; 0x1c200
 80024a0:	e880 4008 	stmia.w	r0, {r3, lr}
  huart2.Init.Mode = UART_MODE_TX_RX;
 80024a4:	230c      	movs	r3, #12
  huart2.Init.StopBits = UART_STOPBITS_1;
 80024a6:	60c4      	str	r4, [r0, #12]
  huart2.Init.Parity = UART_PARITY_NONE;
 80024a8:	6104      	str	r4, [r0, #16]
  huart2.Init.Mode = UART_MODE_TX_RX;
 80024aa:	6143      	str	r3, [r0, #20]
  huart2.Init.HwFlowCtl = UART_HWCONTROL_NONE;
 80024ac:	6184      	str	r4, [r0, #24]
  huart2.Init.OverSampling = UART_OVERSAMPLING_16;
 80024ae:	61c4      	str	r4, [r0, #28]
  if (HAL_UART_Init(&huart2) != HAL_OK)
 80024b0:	f7ff fcba 	bl	8001e28 <HAL_UART_Init>
 80024b4:	b100      	cbz	r0, 80024b8 <main+0x120>
 80024b6:	e7fe      	b.n	80024b6 <main+0x11e>
  hadc1.Instance = ADC1;
 80024b8:	4c66      	ldr	r4, [pc, #408]	; (8002654 <main+0x2bc>)
  hadc1.Init.ClockPrescaler = ADC_CLOCK_SYNC_PCLK_DIV4;
 80024ba:	4967      	ldr	r1, [pc, #412]	; (8002658 <main+0x2c0>)
  hadc1.Init.Resolution = ADC_RESOLUTION_12B;
 80024bc:	60a0      	str	r0, [r4, #8]
  hadc1.Init.ClockPrescaler = ADC_CLOCK_SYNC_PCLK_DIV4;
 80024be:	f44f 3380 	mov.w	r3, #65536	; 0x10000
 80024c2:	e884 000a 	stmia.w	r4, {r1, r3}
  hadc1.Init.DiscontinuousConvMode = DISABLE;
 80024c6:	6220      	str	r0, [r4, #32]
  hadc1.Init.ExternalTrigConvEdge = ADC_EXTERNALTRIGCONVEDGE_NONE;
 80024c8:	62e0      	str	r0, [r4, #44]	; 0x2c
  hadc1.Init.ExternalTrigConv = ADC_SOFTWARE_START;
 80024ca:	4b64      	ldr	r3, [pc, #400]	; (800265c <main+0x2c4>)
  hadc1.Init.DataAlign = ADC_DATAALIGN_RIGHT;
 80024cc:	60e0      	str	r0, [r4, #12]
  hadc1.Init.NbrOfConversion = 3;
 80024ce:	f04f 0a03 	mov.w	sl, #3
  hadc1.Init.DMAContinuousRequests = DISABLE;
 80024d2:	6320      	str	r0, [r4, #48]	; 0x30
  if (HAL_ADC_Init(&hadc1) != HAL_OK)
 80024d4:	4620      	mov	r0, r4
  hadc1.Init.ScanConvMode = ENABLE;
 80024d6:	6125      	str	r5, [r4, #16]
  hadc1.Init.ContinuousConvMode = ENABLE;
 80024d8:	61a5      	str	r5, [r4, #24]
  hadc1.Init.ExternalTrigConv = ADC_SOFTWARE_START;
 80024da:	62a3      	str	r3, [r4, #40]	; 0x28
  hadc1.Init.NbrOfConversion = 3;
 80024dc:	f8c4 a01c 	str.w	sl, [r4, #28]
  hadc1.Init.EOCSelection = ADC_EOC_SINGLE_CONV;
 80024e0:	6165      	str	r5, [r4, #20]
  if (HAL_ADC_Init(&hadc1) != HAL_OK)
 80024e2:	f7fe fc4f 	bl	8000d84 <HAL_ADC_Init>
 80024e6:	b100      	cbz	r0, 80024ea <main+0x152>
 80024e8:	e7fe      	b.n	80024e8 <main+0x150>
  sConfig.SamplingTime = ADC_SAMPLETIME_480CYCLES;
 80024ea:	2307      	movs	r3, #7
  if (HAL_ADC_ConfigChannel(&hadc1, &sConfig) != HAL_OK)
 80024ec:	a909      	add	r1, sp, #36	; 0x24
 80024ee:	4620      	mov	r0, r4
  sConfig.Channel = ADC_CHANNEL_VREFINT;
 80024f0:	f8cd 9024 	str.w	r9, [sp, #36]	; 0x24
  sConfig.Rank = 1;
 80024f4:	950a      	str	r5, [sp, #40]	; 0x28
  sConfig.SamplingTime = ADC_SAMPLETIME_480CYCLES;
 80024f6:	930b      	str	r3, [sp, #44]	; 0x2c
  if (HAL_ADC_ConfigChannel(&hadc1, &sConfig) != HAL_OK)
 80024f8:	f7fe fde8 	bl	80010cc <HAL_ADC_ConfigChannel>
 80024fc:	b100      	cbz	r0, 8002500 <main+0x168>
 80024fe:	e7fe      	b.n	80024fe <main+0x166>
  sConfig.Rank = 2;
 8002500:	f04f 0902 	mov.w	r9, #2
  if (HAL_ADC_ConfigChannel(&hadc1, &sConfig) != HAL_OK)
 8002504:	a909      	add	r1, sp, #36	; 0x24
 8002506:	4620      	mov	r0, r4
  sConfig.Channel = ADC_CHANNEL_TEMPSENSOR;
 8002508:	9609      	str	r6, [sp, #36]	; 0x24
  sConfig.Rank = 2;
 800250a:	f8cd 9028 	str.w	r9, [sp, #40]	; 0x28
  if (HAL_ADC_ConfigChannel(&hadc1, &sConfig) != HAL_OK)
 800250e:	f7fe fddd 	bl	80010cc <HAL_ADC_ConfigChannel>
 8002512:	b100      	cbz	r0, 8002516 <main+0x17e>
 8002514:	e7fe      	b.n	8002514 <main+0x17c>
  sConfig.Channel = ADC_CHANNEL_0;
 8002516:	9009      	str	r0, [sp, #36]	; 0x24
  if (HAL_ADC_ConfigChannel(&hadc1, &sConfig) != HAL_OK)
 8002518:	a909      	add	r1, sp, #36	; 0x24
 800251a:	4620      	mov	r0, r4
  sConfig.Rank = 3;
 800251c:	f8cd a028 	str.w	sl, [sp, #40]	; 0x28
  if (HAL_ADC_ConfigChannel(&hadc1, &sConfig) != HAL_OK)
 8002520:	f7fe fdd4 	bl	80010cc <HAL_ADC_ConfigChannel>
 8002524:	b100      	cbz	r0, 8002528 <main+0x190>
 8002526:	e7fe      	b.n	8002526 <main+0x18e>
  htim10.Instance = TIM10;
 8002528:	4e4d      	ldr	r6, [pc, #308]	; (8002660 <main+0x2c8>)
  htim10.Init.Prescaler = 15;
 800252a:	4a4e      	ldr	r2, [pc, #312]	; (8002664 <main+0x2cc>)
  htim10.Init.CounterMode = TIM_COUNTERMODE_UP;
 800252c:	60b0      	str	r0, [r6, #8]
  htim10.Init.Prescaler = 15;
 800252e:	230f      	movs	r3, #15
 8002530:	e886 000c 	stmia.w	r6, {r2, r3}
  htim10.Init.ClockDivision = TIM_CLOCKDIVISION_DIV1;
 8002534:	6130      	str	r0, [r6, #16]
  htim10.Init.Period = 49999;
 8002536:	f24c 334f 	movw	r3, #49999	; 0xc34f
  if (HAL_TIM_Base_Init(&htim10) != HAL_OK)
 800253a:	4630      	mov	r0, r6
  htim10.Init.Period = 49999;
 800253c:	60f3      	str	r3, [r6, #12]
  if (HAL_TIM_Base_Init(&htim10) != HAL_OK)
 800253e:	f7ff fb3d 	bl	8001bbc <HAL_TIM_Base_Init>
 8002542:	b100      	cbz	r0, 8002546 <main+0x1ae>
 8002544:	e7fe      	b.n	8002544 <main+0x1ac>
  htim11.Instance = TIM11;
 8002546:	4b48      	ldr	r3, [pc, #288]	; (8002668 <main+0x2d0>)
 8002548:	4a48      	ldr	r2, [pc, #288]	; (800266c <main+0x2d4>)
 800254a:	601a      	str	r2, [r3, #0]
  htim11.Init.Prescaler = 0;
 800254c:	6058      	str	r0, [r3, #4]
  htim11.Init.CounterMode = TIM_COUNTERMODE_UP;
 800254e:	6098      	str	r0, [r3, #8]
  htim11.Init.Period = 79;
 8002550:	224f      	movs	r2, #79	; 0x4f
  htim11.Init.ClockDivision = TIM_CLOCKDIVISION_DIV1;
 8002552:	6118      	str	r0, [r3, #16]
  if (HAL_TIM_Base_Init(&htim11) != HAL_OK)
 8002554:	4618      	mov	r0, r3
  htim11.Init.Period = 79;
 8002556:	60da      	str	r2, [r3, #12]
  if (HAL_TIM_Base_Init(&htim11) != HAL_OK)
 8002558:	f7ff fb30 	bl	8001bbc <HAL_TIM_Base_Init>
 800255c:	b100      	cbz	r0, 8002560 <main+0x1c8>
 800255e:	e7fe      	b.n	800255e <main+0x1c6>
  HAL_ADC_Start_IT(&hadc1);
 8002560:	4620      	mov	r0, r4
 8002562:	f7fe fcb3 	bl	8000ecc <HAL_ADC_Start_IT>
  HAL_TIM_Base_Start_IT(&htim10);
 8002566:	4630      	mov	r0, r6
 8002568:	f7ff fa14 	bl	8001994 <HAL_TIM_Base_Start_IT>
  TextLCD_Init(&lcd, LCD_RS_GPIO_Port, LCD_RS_Pin, LCD_RW_Pin, LCD_E_Pin, LCD_D0_GPIO_Port, (LCD_D0_Pin|LCD_D1_Pin|LCD_D2_Pin|LCD_D3_Pin|LCD_D4_Pin|LCD_D5_Pin|LCD_D6_Pin|LCD_D7_Pin));
 800256c:	2304      	movs	r3, #4
 800256e:	9300      	str	r3, [sp, #0]
 8002570:	462a      	mov	r2, r5
 8002572:	f8cd 8008 	str.w	r8, [sp, #8]
 8002576:	9701      	str	r7, [sp, #4]
 8002578:	464b      	mov	r3, r9
 800257a:	4932      	ldr	r1, [pc, #200]	; (8002644 <main+0x2ac>)
 800257c:	483c      	ldr	r0, [pc, #240]	; (8002670 <main+0x2d8>)
	itoa(DHTout, DHT11_char, 10);
 800257e:	4e3d      	ldr	r6, [pc, #244]	; (8002674 <main+0x2dc>)
	itoa(DHThum, DHT11_hum, 10);
 8002580:	4d3d      	ldr	r5, [pc, #244]	; (8002678 <main+0x2e0>)
	TextLCD_Clear(&lcd);
 8002582:	4c3b      	ldr	r4, [pc, #236]	; (8002670 <main+0x2d8>)
  TextLCD_Init(&lcd, LCD_RS_GPIO_Port, LCD_RS_Pin, LCD_RW_Pin, LCD_E_Pin, LCD_D0_GPIO_Port, (LCD_D0_Pin|LCD_D1_Pin|LCD_D2_Pin|LCD_D3_Pin|LCD_D4_Pin|LCD_D5_Pin|LCD_D6_Pin|LCD_D7_Pin));
 8002584:	f7ff fcc7 	bl	8001f16 <TextLCD_Init>
	DHTout = Read_DHT11();
 8002588:	f7ff fe12 	bl	80021b0 <Read_DHT11>
 800258c:	4b3b      	ldr	r3, [pc, #236]	; (800267c <main+0x2e4>)
	itoa(DHTout, DHT11_char, 10);
 800258e:	4631      	mov	r1, r6
 8002590:	220a      	movs	r2, #10
	DHTout = Read_DHT11();
 8002592:	6018      	str	r0, [r3, #0]
	itoa(DHTout, DHT11_char, 10);
 8002594:	f000 f9ec 	bl	8002970 <itoa>
	DHThum = DHT11_data[0];
 8002598:	4b39      	ldr	r3, [pc, #228]	; (8002680 <main+0x2e8>)
 800259a:	7818      	ldrb	r0, [r3, #0]
 800259c:	4b39      	ldr	r3, [pc, #228]	; (8002684 <main+0x2ec>)
	itoa(DHThum, DHT11_hum, 10);
 800259e:	4629      	mov	r1, r5
 80025a0:	220a      	movs	r2, #10
	DHThum = DHT11_data[0];
 80025a2:	6018      	str	r0, [r3, #0]
	itoa(DHThum, DHT11_hum, 10);
 80025a4:	f000 f9e4 	bl	8002970 <itoa>
	calcTemps();
 80025a8:	f7ff fe62 	bl	8002270 <calcTemps>
	setTemp();
 80025ac:	f7ff fed4 	bl	8002358 <setTemp>
	checkTemp();
 80025b0:	f7ff fe96 	bl	80022e0 <checkTemp>
	TextLCD_Clear(&lcd);
 80025b4:	4620      	mov	r0, r4
 80025b6:	f7ff fcf5 	bl	8001fa4 <TextLCD_Clear>
	TextLCD_Position(&lcd, 0, 0);
 80025ba:	2200      	movs	r2, #0
 80025bc:	4611      	mov	r1, r2
 80025be:	4620      	mov	r0, r4
 80025c0:	f7ff fcf9 	bl	8001fb6 <TextLCD_Position>
	TextLCD_Puts(&lcd,"DHT11: ");
 80025c4:	4620      	mov	r0, r4
 80025c6:	4930      	ldr	r1, [pc, #192]	; (8002688 <main+0x2f0>)
 80025c8:	f7ff fd20 	bl	800200c <TextLCD_Puts>
	TextLCD_Puts(&lcd, DHT11_char);
 80025cc:	4631      	mov	r1, r6
 80025ce:	4620      	mov	r0, r4
 80025d0:	f7ff fd1c 	bl	800200c <TextLCD_Puts>
	TextLCD_Putchar(&lcd, 0xdf);
 80025d4:	4620      	mov	r0, r4
 80025d6:	21df      	movs	r1, #223	; 0xdf
 80025d8:	f7ff fcfa 	bl	8001fd0 <TextLCD_Putchar>
	TextLCD_Puts(&lcd, "C  ");
 80025dc:	4620      	mov	r0, r4
 80025de:	492b      	ldr	r1, [pc, #172]	; (800268c <main+0x2f4>)
 80025e0:	f7ff fd14 	bl	800200c <TextLCD_Puts>
	TextLCD_Puts(&lcd, DHT11_hum);
 80025e4:	4629      	mov	r1, r5
 80025e6:	4620      	mov	r0, r4
 80025e8:	f7ff fd10 	bl	800200c <TextLCD_Puts>
	TextLCD_Position(&lcd, 12, 1);
 80025ec:	2201      	movs	r2, #1
 80025ee:	4620      	mov	r0, r4
 80025f0:	210c      	movs	r1, #12
 80025f2:	f7ff fce0 	bl	8001fb6 <TextLCD_Position>
	TextLCD_PutInt(&lcd, tempSetter);
 80025f6:	4b26      	ldr	r3, [pc, #152]	; (8002690 <main+0x2f8>)
 80025f8:	4620      	mov	r0, r4
 80025fa:	6819      	ldr	r1, [r3, #0]
 80025fc:	f7ff fcf0 	bl	8001fe0 <TextLCD_PutInt>
	TextLCD_Position(&lcd, 0, 1);
 8002600:	2201      	movs	r2, #1
 8002602:	4620      	mov	r0, r4
 8002604:	2100      	movs	r1, #0
 8002606:	f7ff fcd6 	bl	8001fb6 <TextLCD_Position>
	TextLCD_Puts(&lcd,"NTC: ");
 800260a:	4620      	mov	r0, r4
 800260c:	4921      	ldr	r1, [pc, #132]	; (8002694 <main+0x2fc>)
 800260e:	f7ff fcfd 	bl	800200c <TextLCD_Puts>
	TextLCD_PutInt(&lcd, outTemp);
 8002612:	4b21      	ldr	r3, [pc, #132]	; (8002698 <main+0x300>)
 8002614:	4620      	mov	r0, r4
 8002616:	6819      	ldr	r1, [r3, #0]
 8002618:	f7ff fce2 	bl	8001fe0 <TextLCD_PutInt>
	TextLCD_Putchar(&lcd, 0xdf);
 800261c:	4620      	mov	r0, r4
 800261e:	21df      	movs	r1, #223	; 0xdf
 8002620:	f7ff fcd6 	bl	8001fd0 <TextLCD_Putchar>
	TextLCD_Puts(&lcd, "C");
 8002624:	4620      	mov	r0, r4
 8002626:	491d      	ldr	r1, [pc, #116]	; (800269c <main+0x304>)
 8002628:	f7ff fcf0 	bl	800200c <TextLCD_Puts>
	HAL_Delay(1000);
 800262c:	f44f 707a 	mov.w	r0, #1000	; 0x3e8
 8002630:	f7fe fb94 	bl	8000d5c <HAL_Delay>
 8002634:	e7a8      	b.n	8002588 <main+0x1f0>
 8002636:	bf00      	nop
 8002638:	40023800 	.word	0x40023800
 800263c:	40020800 	.word	0x40020800
 8002640:	40020000 	.word	0x40020000
 8002644:	40020400 	.word	0x40020400
 8002648:	10210000 	.word	0x10210000
 800264c:	200001a0 	.word	0x200001a0
 8002650:	40004400 	.word	0x40004400
 8002654:	20000148 	.word	0x20000148
 8002658:	40012000 	.word	0x40012000
 800265c:	0f000001 	.word	0x0f000001
 8002660:	20000100 	.word	0x20000100
 8002664:	40014400 	.word	0x40014400
 8002668:	2000005c 	.word	0x2000005c
 800266c:	40014800 	.word	0x40014800
 8002670:	20000098 	.word	0x20000098
 8002674:	2000013c 	.word	0x2000013c
 8002678:	20000190 	.word	0x20000190
 800267c:	20000038 	.word	0x20000038
 8002680:	2000019a 	.word	0x2000019a
 8002684:	20000034 	.word	0x20000034
 8002688:	08002a0c 	.word	0x08002a0c
 800268c:	08002a14 	.word	0x08002a14
 8002690:	2000000c 	.word	0x2000000c
 8002694:	08002a18 	.word	0x08002a18
 8002698:	20000048 	.word	0x20000048
 800269c:	08002a1e 	.word	0x08002a1e

080026a0 <HAL_MspInit>:
/* USER CODE END 0 */
/**
  * Initializes the Global MSP.
  */
void HAL_MspInit(void)
{
 80026a0:	b508      	push	{r3, lr}
  /* USER CODE BEGIN MspInit 0 */

  /* USER CODE END MspInit 0 */

  HAL_NVIC_SetPriorityGrouping(NVIC_PRIORITYGROUP_0);
 80026a2:	2007      	movs	r0, #7
 80026a4:	f7fe fdaa 	bl	80011fc <HAL_NVIC_SetPriorityGrouping>

  /* System interrupt init*/
  /* MemoryManagement_IRQn interrupt configuration */
  HAL_NVIC_SetPriority(MemoryManagement_IRQn, 0, 0);
 80026a8:	2200      	movs	r2, #0
 80026aa:	4611      	mov	r1, r2
 80026ac:	f06f 000b 	mvn.w	r0, #11
 80026b0:	f7fe fdb6 	bl	8001220 <HAL_NVIC_SetPriority>
  /* BusFault_IRQn interrupt configuration */
  HAL_NVIC_SetPriority(BusFault_IRQn, 0, 0);
 80026b4:	2200      	movs	r2, #0
 80026b6:	4611      	mov	r1, r2
 80026b8:	f06f 000a 	mvn.w	r0, #10
 80026bc:	f7fe fdb0 	bl	8001220 <HAL_NVIC_SetPriority>
  /* UsageFault_IRQn interrupt configuration */
  HAL_NVIC_SetPriority(UsageFault_IRQn, 0, 0);
 80026c0:	2200      	movs	r2, #0
 80026c2:	4611      	mov	r1, r2
 80026c4:	f06f 0009 	mvn.w	r0, #9
 80026c8:	f7fe fdaa 	bl	8001220 <HAL_NVIC_SetPriority>
  /* SVCall_IRQn interrupt configuration */
  HAL_NVIC_SetPriority(SVCall_IRQn, 0, 0);
 80026cc:	2200      	movs	r2, #0
 80026ce:	4611      	mov	r1, r2
 80026d0:	f06f 0004 	mvn.w	r0, #4
 80026d4:	f7fe fda4 	bl	8001220 <HAL_NVIC_SetPriority>
  /* DebugMonitor_IRQn interrupt configuration */
  HAL_NVIC_SetPriority(DebugMonitor_IRQn, 0, 0);
 80026d8:	2200      	movs	r2, #0
 80026da:	4611      	mov	r1, r2
 80026dc:	f06f 0003 	mvn.w	r0, #3
 80026e0:	f7fe fd9e 	bl	8001220 <HAL_NVIC_SetPriority>
  /* PendSV_IRQn interrupt configuration */
  HAL_NVIC_SetPriority(PendSV_IRQn, 0, 0);
 80026e4:	2200      	movs	r2, #0
 80026e6:	4611      	mov	r1, r2
 80026e8:	f06f 0001 	mvn.w	r0, #1
 80026ec:	f7fe fd98 	bl	8001220 <HAL_NVIC_SetPriority>
  /* SysTick_IRQn interrupt configuration */
  HAL_NVIC_SetPriority(SysTick_IRQn, 0, 0);
 80026f0:	2200      	movs	r2, #0
 80026f2:	4611      	mov	r1, r2
 80026f4:	f04f 30ff 	mov.w	r0, #4294967295

  /* USER CODE BEGIN MspInit 1 */

  /* USER CODE END MspInit 1 */
}
 80026f8:	e8bd 4008 	ldmia.w	sp!, {r3, lr}
  HAL_NVIC_SetPriority(SysTick_IRQn, 0, 0);
 80026fc:	f7fe bd90 	b.w	8001220 <HAL_NVIC_SetPriority>

08002700 <HAL_ADC_MspInit>:

void HAL_ADC_MspInit(ADC_HandleTypeDef* hadc)
{
 8002700:	b510      	push	{r4, lr}

  GPIO_InitTypeDef GPIO_InitStruct;
  if(hadc->Instance==ADC1)
 8002702:	6802      	ldr	r2, [r0, #0]
 8002704:	4b11      	ldr	r3, [pc, #68]	; (800274c <HAL_ADC_MspInit+0x4c>)
 8002706:	429a      	cmp	r2, r3
{
 8002708:	b086      	sub	sp, #24
  if(hadc->Instance==ADC1)
 800270a:	d11d      	bne.n	8002748 <HAL_ADC_MspInit+0x48>
  {
  /* USER CODE BEGIN ADC1_MspInit 0 */

  /* USER CODE END ADC1_MspInit 0 */
    /* Peripheral clock enable */
    __HAL_RCC_ADC1_CLK_ENABLE();
 800270c:	2400      	movs	r4, #0
 800270e:	f503 338c 	add.w	r3, r3, #71680	; 0x11800
 8002712:	9400      	str	r4, [sp, #0]
 8002714:	6c5a      	ldr	r2, [r3, #68]	; 0x44
    PA0-WKUP     ------> ADC1_IN0 
    */
    GPIO_InitStruct.Pin = NTC_Pin;
    GPIO_InitStruct.Mode = GPIO_MODE_ANALOG;
    GPIO_InitStruct.Pull = GPIO_NOPULL;
    HAL_GPIO_Init(NTC_GPIO_Port, &GPIO_InitStruct);
 8002716:	480e      	ldr	r0, [pc, #56]	; (8002750 <HAL_ADC_MspInit+0x50>)
    __HAL_RCC_ADC1_CLK_ENABLE();
 8002718:	f442 7280 	orr.w	r2, r2, #256	; 0x100
 800271c:	645a      	str	r2, [r3, #68]	; 0x44
 800271e:	6c5b      	ldr	r3, [r3, #68]	; 0x44
    GPIO_InitStruct.Pull = GPIO_NOPULL;
 8002720:	9403      	str	r4, [sp, #12]
    __HAL_RCC_ADC1_CLK_ENABLE();
 8002722:	f403 7380 	and.w	r3, r3, #256	; 0x100
 8002726:	9300      	str	r3, [sp, #0]
 8002728:	9b00      	ldr	r3, [sp, #0]
    GPIO_InitStruct.Pin = NTC_Pin;
 800272a:	2301      	movs	r3, #1
 800272c:	9301      	str	r3, [sp, #4]
    HAL_GPIO_Init(NTC_GPIO_Port, &GPIO_InitStruct);
 800272e:	a901      	add	r1, sp, #4
    GPIO_InitStruct.Mode = GPIO_MODE_ANALOG;
 8002730:	2303      	movs	r3, #3
 8002732:	9302      	str	r3, [sp, #8]
    HAL_GPIO_Init(NTC_GPIO_Port, &GPIO_InitStruct);
 8002734:	f7fe fddc 	bl	80012f0 <HAL_GPIO_Init>

    /* ADC1 interrupt Init */
    HAL_NVIC_SetPriority(ADC_IRQn, 0, 0);
 8002738:	2012      	movs	r0, #18
 800273a:	4622      	mov	r2, r4
 800273c:	4621      	mov	r1, r4
 800273e:	f7fe fd6f 	bl	8001220 <HAL_NVIC_SetPriority>
    HAL_NVIC_EnableIRQ(ADC_IRQn);
 8002742:	2012      	movs	r0, #18
 8002744:	f7fe fda0 	bl	8001288 <HAL_NVIC_EnableIRQ>
  /* USER CODE BEGIN ADC1_MspInit 1 */

  /* USER CODE END ADC1_MspInit 1 */
  }

}
 8002748:	b006      	add	sp, #24
 800274a:	bd10      	pop	{r4, pc}
 800274c:	40012000 	.word	0x40012000
 8002750:	40020000 	.word	0x40020000

08002754 <HAL_TIM_Base_MspInit>:
  }

}

void HAL_TIM_Base_MspInit(TIM_HandleTypeDef* htim_base)
{
 8002754:	b507      	push	{r0, r1, r2, lr}

  if(htim_base->Instance==TIM10)
 8002756:	6803      	ldr	r3, [r0, #0]
 8002758:	4a16      	ldr	r2, [pc, #88]	; (80027b4 <HAL_TIM_Base_MspInit+0x60>)
 800275a:	4293      	cmp	r3, r2
 800275c:	d115      	bne.n	800278a <HAL_TIM_Base_MspInit+0x36>
  {
  /* USER CODE BEGIN TIM10_MspInit 0 */

  /* USER CODE END TIM10_MspInit 0 */
    /* Peripheral clock enable */
    __HAL_RCC_TIM10_CLK_ENABLE();
 800275e:	2200      	movs	r2, #0
 8002760:	4b15      	ldr	r3, [pc, #84]	; (80027b8 <HAL_TIM_Base_MspInit+0x64>)
 8002762:	9200      	str	r2, [sp, #0]
 8002764:	6c59      	ldr	r1, [r3, #68]	; 0x44
 8002766:	f441 3100 	orr.w	r1, r1, #131072	; 0x20000
 800276a:	6459      	str	r1, [r3, #68]	; 0x44
 800276c:	6c5b      	ldr	r3, [r3, #68]	; 0x44
 800276e:	f403 3300 	and.w	r3, r3, #131072	; 0x20000
 8002772:	9300      	str	r3, [sp, #0]
    /* TIM10 interrupt Init */
    HAL_NVIC_SetPriority(TIM1_UP_TIM10_IRQn, 0, 0);
 8002774:	2019      	movs	r0, #25
 8002776:	4611      	mov	r1, r2
    __HAL_RCC_TIM10_CLK_ENABLE();
 8002778:	9b00      	ldr	r3, [sp, #0]
    HAL_NVIC_SetPriority(TIM1_UP_TIM10_IRQn, 0, 0);
 800277a:	f7fe fd51 	bl	8001220 <HAL_NVIC_SetPriority>
    HAL_NVIC_EnableIRQ(TIM1_UP_TIM10_IRQn);
 800277e:	2019      	movs	r0, #25
  /* USER CODE END TIM11_MspInit 0 */
    /* Peripheral clock enable */
    __HAL_RCC_TIM11_CLK_ENABLE();
    /* TIM11 interrupt Init */
    HAL_NVIC_SetPriority(TIM1_TRG_COM_TIM11_IRQn, 0, 0);
    HAL_NVIC_EnableIRQ(TIM1_TRG_COM_TIM11_IRQn);
 8002780:	f7fe fd82 	bl	8001288 <HAL_NVIC_EnableIRQ>
  /* USER CODE BEGIN TIM11_MspInit 1 */

  /* USER CODE END TIM11_MspInit 1 */
  }

}
 8002784:	b003      	add	sp, #12
 8002786:	f85d fb04 	ldr.w	pc, [sp], #4
  else if(htim_base->Instance==TIM11)
 800278a:	4a0c      	ldr	r2, [pc, #48]	; (80027bc <HAL_TIM_Base_MspInit+0x68>)
 800278c:	4293      	cmp	r3, r2
 800278e:	d1f9      	bne.n	8002784 <HAL_TIM_Base_MspInit+0x30>
    __HAL_RCC_TIM11_CLK_ENABLE();
 8002790:	2200      	movs	r2, #0
 8002792:	4b09      	ldr	r3, [pc, #36]	; (80027b8 <HAL_TIM_Base_MspInit+0x64>)
 8002794:	9201      	str	r2, [sp, #4]
 8002796:	6c59      	ldr	r1, [r3, #68]	; 0x44
 8002798:	f441 2180 	orr.w	r1, r1, #262144	; 0x40000
 800279c:	6459      	str	r1, [r3, #68]	; 0x44
 800279e:	6c5b      	ldr	r3, [r3, #68]	; 0x44
 80027a0:	f403 2380 	and.w	r3, r3, #262144	; 0x40000
 80027a4:	9301      	str	r3, [sp, #4]
    HAL_NVIC_SetPriority(TIM1_TRG_COM_TIM11_IRQn, 0, 0);
 80027a6:	201a      	movs	r0, #26
 80027a8:	4611      	mov	r1, r2
    __HAL_RCC_TIM11_CLK_ENABLE();
 80027aa:	9b01      	ldr	r3, [sp, #4]
    HAL_NVIC_SetPriority(TIM1_TRG_COM_TIM11_IRQn, 0, 0);
 80027ac:	f7fe fd38 	bl	8001220 <HAL_NVIC_SetPriority>
    HAL_NVIC_EnableIRQ(TIM1_TRG_COM_TIM11_IRQn);
 80027b0:	201a      	movs	r0, #26
 80027b2:	e7e5      	b.n	8002780 <HAL_TIM_Base_MspInit+0x2c>
 80027b4:	40014400 	.word	0x40014400
 80027b8:	40023800 	.word	0x40023800
 80027bc:	40014800 	.word	0x40014800

080027c0 <HAL_UART_MspInit>:
  }

}

void HAL_UART_MspInit(UART_HandleTypeDef* huart)
{
 80027c0:	b57f      	push	{r0, r1, r2, r3, r4, r5, r6, lr}

  GPIO_InitTypeDef GPIO_InitStruct;
  if(huart->Instance==USART2)
 80027c2:	6802      	ldr	r2, [r0, #0]
 80027c4:	4b0e      	ldr	r3, [pc, #56]	; (8002800 <HAL_UART_MspInit+0x40>)
 80027c6:	429a      	cmp	r2, r3
 80027c8:	d117      	bne.n	80027fa <HAL_UART_MspInit+0x3a>
  {
  /* USER CODE BEGIN USART2_MspInit 0 */

  /* USER CODE END USART2_MspInit 0 */
    /* Peripheral clock enable */
    __HAL_RCC_USART2_CLK_ENABLE();
 80027ca:	2300      	movs	r3, #0
 80027cc:	4a0d      	ldr	r2, [pc, #52]	; (8002804 <HAL_UART_MspInit+0x44>)
 80027ce:	9300      	str	r3, [sp, #0]
 80027d0:	6c11      	ldr	r1, [r2, #64]	; 0x40
    GPIO_InitStruct.Pin = USART_TX_Pin|USART_RX_Pin;
    GPIO_InitStruct.Mode = GPIO_MODE_AF_PP;
    GPIO_InitStruct.Pull = GPIO_NOPULL;
    GPIO_InitStruct.Speed = GPIO_SPEED_FREQ_LOW;
    GPIO_InitStruct.Alternate = GPIO_AF7_USART2;
    HAL_GPIO_Init(GPIOA, &GPIO_InitStruct);
 80027d2:	480d      	ldr	r0, [pc, #52]	; (8002808 <HAL_UART_MspInit+0x48>)
    __HAL_RCC_USART2_CLK_ENABLE();
 80027d4:	f441 3100 	orr.w	r1, r1, #131072	; 0x20000
 80027d8:	6411      	str	r1, [r2, #64]	; 0x40
 80027da:	6c12      	ldr	r2, [r2, #64]	; 0x40
    GPIO_InitStruct.Pull = GPIO_NOPULL;
 80027dc:	9303      	str	r3, [sp, #12]
    __HAL_RCC_USART2_CLK_ENABLE();
 80027de:	f402 3200 	and.w	r2, r2, #131072	; 0x20000
 80027e2:	9200      	str	r2, [sp, #0]
 80027e4:	9a00      	ldr	r2, [sp, #0]
    GPIO_InitStruct.Speed = GPIO_SPEED_FREQ_LOW;
 80027e6:	9304      	str	r3, [sp, #16]
    GPIO_InitStruct.Pin = USART_TX_Pin|USART_RX_Pin;
 80027e8:	220c      	movs	r2, #12
 80027ea:	9201      	str	r2, [sp, #4]
    GPIO_InitStruct.Alternate = GPIO_AF7_USART2;
 80027ec:	2307      	movs	r3, #7
    GPIO_InitStruct.Mode = GPIO_MODE_AF_PP;
 80027ee:	2202      	movs	r2, #2
    HAL_GPIO_Init(GPIOA, &GPIO_InitStruct);
 80027f0:	a901      	add	r1, sp, #4
    GPIO_InitStruct.Mode = GPIO_MODE_AF_PP;
 80027f2:	9202      	str	r2, [sp, #8]
    GPIO_InitStruct.Alternate = GPIO_AF7_USART2;
 80027f4:	9305      	str	r3, [sp, #20]
    HAL_GPIO_Init(GPIOA, &GPIO_InitStruct);
 80027f6:	f7fe fd7b 	bl	80012f0 <HAL_GPIO_Init>
  /* USER CODE BEGIN USART2_MspInit 1 */

  /* USER CODE END USART2_MspInit 1 */
  }

}
 80027fa:	b007      	add	sp, #28
 80027fc:	f85d fb04 	ldr.w	pc, [sp], #4
 8002800:	40004400 	.word	0x40004400
 8002804:	40023800 	.word	0x40023800
 8002808:	40020000 	.word	0x40020000

0800280c <SysTick_Handler>:

/**
* @brief This function handles System tick timer.
*/
void SysTick_Handler(void)
{
 800280c:	b508      	push	{r3, lr}
  /* USER CODE BEGIN SysTick_IRQn 0 */

  /* USER CODE END SysTick_IRQn 0 */
  HAL_IncTick();
 800280e:	f7fe fa93 	bl	8000d38 <HAL_IncTick>
  HAL_SYSTICK_IRQHandler();
  /* USER CODE BEGIN SysTick_IRQn 1 */

  /* USER CODE END SysTick_IRQn 1 */
}
 8002812:	e8bd 4008 	ldmia.w	sp!, {r3, lr}
  HAL_SYSTICK_IRQHandler();
 8002816:	f7fe bd66 	b.w	80012e6 <HAL_SYSTICK_IRQHandler>
	...

0800281c <ADC_IRQHandler>:
void ADC_IRQHandler(void)
{
  /* USER CODE BEGIN ADC_IRQn 0 */

  /* USER CODE END ADC_IRQn 0 */
  HAL_ADC_IRQHandler(&hadc1);
 800281c:	4801      	ldr	r0, [pc, #4]	; (8002824 <ADC_IRQHandler+0x8>)
 800281e:	f7fe bbc0 	b.w	8000fa2 <HAL_ADC_IRQHandler>
 8002822:	bf00      	nop
 8002824:	20000148 	.word	0x20000148

08002828 <TIM1_UP_TIM10_IRQHandler>:
* @brief This function handles TIM1 update interrupt and TIM10 global interrupt.
*/
void TIM1_UP_TIM10_IRQHandler(void)
{
  /* USER CODE BEGIN TIM1_UP_TIM10_IRQn 0 */
	sTick++;
 8002828:	4a03      	ldr	r2, [pc, #12]	; (8002838 <TIM1_UP_TIM10_IRQHandler+0x10>)
  /* USER CODE END TIM1_UP_TIM10_IRQn 0 */
  HAL_TIM_IRQHandler(&htim10);
 800282a:	4804      	ldr	r0, [pc, #16]	; (800283c <TIM1_UP_TIM10_IRQHandler+0x14>)
	sTick++;
 800282c:	6813      	ldr	r3, [r2, #0]
 800282e:	3301      	adds	r3, #1
 8002830:	6013      	str	r3, [r2, #0]
  HAL_TIM_IRQHandler(&htim10);
 8002832:	f7ff b8d4 	b.w	80019de <HAL_TIM_IRQHandler>
 8002836:	bf00      	nop
 8002838:	2000004c 	.word	0x2000004c
 800283c:	20000100 	.word	0x20000100

08002840 <TIM1_TRG_COM_TIM11_IRQHandler>:
* @brief This function handles TIM1 trigger and commutation interrupts and TIM11 global interrupt.
*/
void TIM1_TRG_COM_TIM11_IRQHandler(void)
{
  /* USER CODE BEGIN TIM1_TRG_COM_TIM11_IRQn 0 */
	usTick++;
 8002840:	4a03      	ldr	r2, [pc, #12]	; (8002850 <TIM1_TRG_COM_TIM11_IRQHandler+0x10>)
  /* USER CODE END TIM1_TRG_COM_TIM11_IRQn 0 */
  HAL_TIM_IRQHandler(&htim11);
 8002842:	4804      	ldr	r0, [pc, #16]	; (8002854 <TIM1_TRG_COM_TIM11_IRQHandler+0x14>)
	usTick++;
 8002844:	6813      	ldr	r3, [r2, #0]
 8002846:	3301      	adds	r3, #1
 8002848:	6013      	str	r3, [r2, #0]
  HAL_TIM_IRQHandler(&htim11);
 800284a:	f7ff b8c8 	b.w	80019de <HAL_TIM_IRQHandler>
 800284e:	bf00      	nop
 8002850:	20000030 	.word	0x20000030
 8002854:	2000005c 	.word	0x2000005c

08002858 <SystemInit>:
  */
void SystemInit(void)
{
  /* FPU settings ------------------------------------------------------------*/
  #if (__FPU_PRESENT == 1) && (__FPU_USED == 1)
    SCB->CPACR |= ((3UL << 10*2)|(3UL << 11*2));  /* set CP10 and CP11 Full Access */
 8002858:	490f      	ldr	r1, [pc, #60]	; (8002898 <SystemInit+0x40>)
 800285a:	f8d1 3088 	ldr.w	r3, [r1, #136]	; 0x88
 800285e:	f443 0370 	orr.w	r3, r3, #15728640	; 0xf00000
 8002862:	f8c1 3088 	str.w	r3, [r1, #136]	; 0x88
  #endif
  /* Reset the RCC clock configuration to the default reset state ------------*/
  /* Set HSION bit */
  RCC->CR |= (uint32_t)0x00000001;
 8002866:	4b0d      	ldr	r3, [pc, #52]	; (800289c <SystemInit+0x44>)
 8002868:	681a      	ldr	r2, [r3, #0]

  /* Reset CFGR register */
  RCC->CFGR = 0x00000000;
 800286a:	2000      	movs	r0, #0
  RCC->CR |= (uint32_t)0x00000001;
 800286c:	f042 0201 	orr.w	r2, r2, #1
 8002870:	601a      	str	r2, [r3, #0]
  RCC->CFGR = 0x00000000;
 8002872:	6098      	str	r0, [r3, #8]

  /* Reset HSEON, CSSON and PLLON bits */
  RCC->CR &= (uint32_t)0xFEF6FFFF;
 8002874:	681a      	ldr	r2, [r3, #0]
 8002876:	f022 7284 	bic.w	r2, r2, #17301504	; 0x1080000
 800287a:	f422 3280 	bic.w	r2, r2, #65536	; 0x10000
 800287e:	601a      	str	r2, [r3, #0]

  /* Reset PLLCFGR register */
  RCC->PLLCFGR = 0x24003010;
 8002880:	4a07      	ldr	r2, [pc, #28]	; (80028a0 <SystemInit+0x48>)
 8002882:	605a      	str	r2, [r3, #4]

  /* Reset HSEBYP bit */
  RCC->CR &= (uint32_t)0xFFFBFFFF;
 8002884:	681a      	ldr	r2, [r3, #0]
 8002886:	f422 2280 	bic.w	r2, r2, #262144	; 0x40000
 800288a:	601a      	str	r2, [r3, #0]

  /* Disable all interrupts */
  RCC->CIR = 0x00000000;
 800288c:	60d8      	str	r0, [r3, #12]

  /* Configure the Vector Table location add offset address ------------------*/
#ifdef VECT_TAB_SRAM
  SCB->VTOR = SRAM_BASE | VECT_TAB_OFFSET; /* Vector Table Relocation in Internal SRAM */
#else
  SCB->VTOR = FLASH_BASE | VECT_TAB_OFFSET; /* Vector Table Relocation in Internal FLASH */
 800288e:	f04f 6300 	mov.w	r3, #134217728	; 0x8000000
 8002892:	608b      	str	r3, [r1, #8]
 8002894:	4770      	bx	lr
 8002896:	bf00      	nop
 8002898:	e000ed00 	.word	0xe000ed00
 800289c:	40023800 	.word	0x40023800
 80028a0:	24003010 	.word	0x24003010

080028a4 <Reset_Handler>:

    .section  .text.Reset_Handler
  .weak  Reset_Handler
  .type  Reset_Handler, %function
Reset_Handler:  
  ldr   sp, =_estack    		 /* set stack pointer */
 80028a4:	f8df d034 	ldr.w	sp, [pc, #52]	; 80028dc <LoopFillZerobss+0x14>

/* Copy the data segment initializers from flash to SRAM */  
  movs  r1, #0
 80028a8:	2100      	movs	r1, #0
  b  LoopCopyDataInit
 80028aa:	e003      	b.n	80028b4 <LoopCopyDataInit>

080028ac <CopyDataInit>:

CopyDataInit:
  ldr  r3, =_sidata
 80028ac:	4b0c      	ldr	r3, [pc, #48]	; (80028e0 <LoopFillZerobss+0x18>)
  ldr  r3, [r3, r1]
 80028ae:	585b      	ldr	r3, [r3, r1]
  str  r3, [r0, r1]
 80028b0:	5043      	str	r3, [r0, r1]
  adds  r1, r1, #4
 80028b2:	3104      	adds	r1, #4

080028b4 <LoopCopyDataInit>:
    
LoopCopyDataInit:
  ldr  r0, =_sdata
 80028b4:	480b      	ldr	r0, [pc, #44]	; (80028e4 <LoopFillZerobss+0x1c>)
  ldr  r3, =_edata
 80028b6:	4b0c      	ldr	r3, [pc, #48]	; (80028e8 <LoopFillZerobss+0x20>)
  adds  r2, r0, r1
 80028b8:	1842      	adds	r2, r0, r1
  cmp  r2, r3
 80028ba:	429a      	cmp	r2, r3
  bcc  CopyDataInit
 80028bc:	d3f6      	bcc.n	80028ac <CopyDataInit>
  ldr  r2, =_sbss
 80028be:	4a0b      	ldr	r2, [pc, #44]	; (80028ec <LoopFillZerobss+0x24>)
  b  LoopFillZerobss
 80028c0:	e002      	b.n	80028c8 <LoopFillZerobss>

080028c2 <FillZerobss>:
/* Zero fill the bss segment. */  
FillZerobss:
  movs  r3, #0
 80028c2:	2300      	movs	r3, #0
  str  r3, [r2], #4
 80028c4:	f842 3b04 	str.w	r3, [r2], #4

080028c8 <LoopFillZerobss>:
    
LoopFillZerobss:
  ldr  r3, = _ebss
 80028c8:	4b09      	ldr	r3, [pc, #36]	; (80028f0 <LoopFillZerobss+0x28>)
  cmp  r2, r3
 80028ca:	429a      	cmp	r2, r3
  bcc  FillZerobss
 80028cc:	d3f9      	bcc.n	80028c2 <FillZerobss>

/* Call the clock system intitialization function.*/
  bl  SystemInit   
 80028ce:	f7ff ffc3 	bl	8002858 <SystemInit>
/* Call static constructors */
    bl __libc_init_array
 80028d2:	f000 f811 	bl	80028f8 <__libc_init_array>
/* Call the application's entry point.*/
  bl  main
 80028d6:	f7ff fd5f 	bl	8002398 <main>
  bx  lr    
 80028da:	4770      	bx	lr
  ldr   sp, =_estack    		 /* set stack pointer */
 80028dc:	20018000 	.word	0x20018000
  ldr  r3, =_sidata
 80028e0:	08002a70 	.word	0x08002a70
  ldr  r0, =_sdata
 80028e4:	20000000 	.word	0x20000000
  ldr  r3, =_edata
 80028e8:	20000014 	.word	0x20000014
  ldr  r2, =_sbss
 80028ec:	20000014 	.word	0x20000014
  ldr  r3, = _ebss
 80028f0:	200001e0 	.word	0x200001e0

080028f4 <BusFault_Handler>:
 * @retval None       
*/
    .section  .text.Default_Handler,"ax",%progbits
Default_Handler:
Infinite_Loop:
  b  Infinite_Loop
 80028f4:	e7fe      	b.n	80028f4 <BusFault_Handler>
	...

080028f8 <__libc_init_array>:
 80028f8:	b570      	push	{r4, r5, r6, lr}
 80028fa:	4e0d      	ldr	r6, [pc, #52]	; (8002930 <__libc_init_array+0x38>)
 80028fc:	4c0d      	ldr	r4, [pc, #52]	; (8002934 <__libc_init_array+0x3c>)
 80028fe:	1ba4      	subs	r4, r4, r6
 8002900:	10a4      	asrs	r4, r4, #2
 8002902:	2500      	movs	r5, #0
 8002904:	42a5      	cmp	r5, r4
 8002906:	d109      	bne.n	800291c <__libc_init_array+0x24>
 8002908:	4e0b      	ldr	r6, [pc, #44]	; (8002938 <__libc_init_array+0x40>)
 800290a:	4c0c      	ldr	r4, [pc, #48]	; (800293c <__libc_init_array+0x44>)
 800290c:	f000 f872 	bl	80029f4 <_init>
 8002910:	1ba4      	subs	r4, r4, r6
 8002912:	10a4      	asrs	r4, r4, #2
 8002914:	2500      	movs	r5, #0
 8002916:	42a5      	cmp	r5, r4
 8002918:	d105      	bne.n	8002926 <__libc_init_array+0x2e>
 800291a:	bd70      	pop	{r4, r5, r6, pc}
 800291c:	f856 3025 	ldr.w	r3, [r6, r5, lsl #2]
 8002920:	4798      	blx	r3
 8002922:	3501      	adds	r5, #1
 8002924:	e7ee      	b.n	8002904 <__libc_init_array+0xc>
 8002926:	f856 3025 	ldr.w	r3, [r6, r5, lsl #2]
 800292a:	4798      	blx	r3
 800292c:	3501      	adds	r5, #1
 800292e:	e7f2      	b.n	8002916 <__libc_init_array+0x1e>
 8002930:	08002a68 	.word	0x08002a68
 8002934:	08002a68 	.word	0x08002a68
 8002938:	08002a68 	.word	0x08002a68
 800293c:	08002a6c 	.word	0x08002a6c

08002940 <__itoa>:
 8002940:	1e93      	subs	r3, r2, #2
 8002942:	2b22      	cmp	r3, #34	; 0x22
 8002944:	b510      	push	{r4, lr}
 8002946:	460c      	mov	r4, r1
 8002948:	d904      	bls.n	8002954 <__itoa+0x14>
 800294a:	2300      	movs	r3, #0
 800294c:	700b      	strb	r3, [r1, #0]
 800294e:	461c      	mov	r4, r3
 8002950:	4620      	mov	r0, r4
 8002952:	bd10      	pop	{r4, pc}
 8002954:	2a0a      	cmp	r2, #10
 8002956:	d109      	bne.n	800296c <__itoa+0x2c>
 8002958:	2800      	cmp	r0, #0
 800295a:	da07      	bge.n	800296c <__itoa+0x2c>
 800295c:	232d      	movs	r3, #45	; 0x2d
 800295e:	700b      	strb	r3, [r1, #0]
 8002960:	4240      	negs	r0, r0
 8002962:	2101      	movs	r1, #1
 8002964:	4421      	add	r1, r4
 8002966:	f000 f805 	bl	8002974 <__utoa>
 800296a:	e7f1      	b.n	8002950 <__itoa+0x10>
 800296c:	2100      	movs	r1, #0
 800296e:	e7f9      	b.n	8002964 <__itoa+0x24>

08002970 <itoa>:
 8002970:	f7ff bfe6 	b.w	8002940 <__itoa>

08002974 <__utoa>:
 8002974:	b5f0      	push	{r4, r5, r6, r7, lr}
 8002976:	4c1e      	ldr	r4, [pc, #120]	; (80029f0 <__utoa+0x7c>)
 8002978:	b08b      	sub	sp, #44	; 0x2c
 800297a:	4603      	mov	r3, r0
 800297c:	460f      	mov	r7, r1
 800297e:	466d      	mov	r5, sp
 8002980:	f104 0e20 	add.w	lr, r4, #32
 8002984:	6820      	ldr	r0, [r4, #0]
 8002986:	6861      	ldr	r1, [r4, #4]
 8002988:	462e      	mov	r6, r5
 800298a:	c603      	stmia	r6!, {r0, r1}
 800298c:	3408      	adds	r4, #8
 800298e:	4574      	cmp	r4, lr
 8002990:	4635      	mov	r5, r6
 8002992:	d1f7      	bne.n	8002984 <__utoa+0x10>
 8002994:	7921      	ldrb	r1, [r4, #4]
 8002996:	7131      	strb	r1, [r6, #4]
 8002998:	1e91      	subs	r1, r2, #2
 800299a:	6820      	ldr	r0, [r4, #0]
 800299c:	6030      	str	r0, [r6, #0]
 800299e:	2922      	cmp	r1, #34	; 0x22
 80029a0:	f04f 0100 	mov.w	r1, #0
 80029a4:	d904      	bls.n	80029b0 <__utoa+0x3c>
 80029a6:	7039      	strb	r1, [r7, #0]
 80029a8:	460f      	mov	r7, r1
 80029aa:	4638      	mov	r0, r7
 80029ac:	b00b      	add	sp, #44	; 0x2c
 80029ae:	bdf0      	pop	{r4, r5, r6, r7, pc}
 80029b0:	1e78      	subs	r0, r7, #1
 80029b2:	4606      	mov	r6, r0
 80029b4:	fbb3 f5f2 	udiv	r5, r3, r2
 80029b8:	f10d 0e28 	add.w	lr, sp, #40	; 0x28
 80029bc:	fb02 3315 	mls	r3, r2, r5, r3
 80029c0:	4473      	add	r3, lr
 80029c2:	1c4c      	adds	r4, r1, #1
 80029c4:	f813 3c28 	ldrb.w	r3, [r3, #-40]
 80029c8:	f806 3f01 	strb.w	r3, [r6, #1]!
 80029cc:	462b      	mov	r3, r5
 80029ce:	b965      	cbnz	r5, 80029ea <__utoa+0x76>
 80029d0:	553d      	strb	r5, [r7, r4]
 80029d2:	187a      	adds	r2, r7, r1
 80029d4:	1acc      	subs	r4, r1, r3
 80029d6:	42a3      	cmp	r3, r4
 80029d8:	dae7      	bge.n	80029aa <__utoa+0x36>
 80029da:	7844      	ldrb	r4, [r0, #1]
 80029dc:	7815      	ldrb	r5, [r2, #0]
 80029de:	f800 5f01 	strb.w	r5, [r0, #1]!
 80029e2:	3301      	adds	r3, #1
 80029e4:	f802 4901 	strb.w	r4, [r2], #-1
 80029e8:	e7f4      	b.n	80029d4 <__utoa+0x60>
 80029ea:	4621      	mov	r1, r4
 80029ec:	e7e2      	b.n	80029b4 <__utoa+0x40>
 80029ee:	bf00      	nop
 80029f0:	08002a38 	.word	0x08002a38

080029f4 <_init>:
 80029f4:	b5f8      	push	{r3, r4, r5, r6, r7, lr}
 80029f6:	bf00      	nop
 80029f8:	bcf8      	pop	{r3, r4, r5, r6, r7}
 80029fa:	bc08      	pop	{r3}
 80029fc:	469e      	mov	lr, r3
 80029fe:	4770      	bx	lr

08002a00 <_fini>:
 8002a00:	b5f8      	push	{r3, r4, r5, r6, r7, lr}
 8002a02:	bf00      	nop
 8002a04:	bcf8      	pop	{r3, r4, r5, r6, r7}
 8002a06:	bc08      	pop	{r3}
 8002a08:	469e      	mov	lr, r3
 8002a0a:	4770      	bx	lr
